
achen115_tetris_music.elf:     file format elf32-avr

Sections:
Idx Name          Size      VMA       LMA       File off  Algn
  0 .data         00000006  00800100  00001fb8  0000204c  2**0
                  CONTENTS, ALLOC, LOAD, DATA
  1 .text         00001fb8  00000000  00000000  00000094  2**1
                  CONTENTS, ALLOC, LOAD, READONLY, CODE
  2 .bss          0000000b  00800106  00800106  00002052  2**0
                  ALLOC
  3 .comment      00000030  00000000  00000000  00002052  2**0
                  CONTENTS, READONLY
  4 .note.gnu.avr.deviceinfo 00000040  00000000  00000000  00002084  2**2
                  CONTENTS, READONLY
  5 .debug_aranges 000000a0  00000000  00000000  000020c4  2**0
                  CONTENTS, READONLY, DEBUGGING
  6 .debug_info   00000c5c  00000000  00000000  00002164  2**0
                  CONTENTS, READONLY, DEBUGGING
  7 .debug_abbrev 00000882  00000000  00000000  00002dc0  2**0
                  CONTENTS, READONLY, DEBUGGING
  8 .debug_line   000005de  00000000  00000000  00003642  2**0
                  CONTENTS, READONLY, DEBUGGING
  9 .debug_frame  00000288  00000000  00000000  00003c20  2**2
                  CONTENTS, READONLY, DEBUGGING
 10 .debug_str    00000547  00000000  00000000  00003ea8  2**0
                  CONTENTS, READONLY, DEBUGGING
 11 .debug_loc    00000523  00000000  00000000  000043ef  2**0
                  CONTENTS, READONLY, DEBUGGING
 12 .debug_ranges 00000090  00000000  00000000  00004912  2**0
                  CONTENTS, READONLY, DEBUGGING

Disassembly of section .text:

00000000 <__vectors>:
       0:	45 c0       	rjmp	.+138    	; 0x8c <__ctors_end>
       2:	00 00       	nop
       4:	62 c0       	rjmp	.+196    	; 0xca <__bad_interrupt>
       6:	00 00       	nop
       8:	60 c0       	rjmp	.+192    	; 0xca <__bad_interrupt>
       a:	00 00       	nop
       c:	5e c0       	rjmp	.+188    	; 0xca <__bad_interrupt>
       e:	00 00       	nop
      10:	5c c0       	rjmp	.+184    	; 0xca <__bad_interrupt>
      12:	00 00       	nop
      14:	5a c0       	rjmp	.+180    	; 0xca <__bad_interrupt>
      16:	00 00       	nop
      18:	58 c0       	rjmp	.+176    	; 0xca <__bad_interrupt>
      1a:	00 00       	nop
      1c:	56 c0       	rjmp	.+172    	; 0xca <__bad_interrupt>
      1e:	00 00       	nop
      20:	54 c0       	rjmp	.+168    	; 0xca <__bad_interrupt>
      22:	00 00       	nop
      24:	52 c0       	rjmp	.+164    	; 0xca <__bad_interrupt>
      26:	00 00       	nop
      28:	50 c0       	rjmp	.+160    	; 0xca <__bad_interrupt>
      2a:	00 00       	nop
      2c:	4e c0       	rjmp	.+156    	; 0xca <__bad_interrupt>
      2e:	00 00       	nop
      30:	4c c0       	rjmp	.+152    	; 0xca <__bad_interrupt>
      32:	00 00       	nop
      34:	8d c0       	rjmp	.+282    	; 0x150 <__vector_13>
      36:	00 00       	nop
      38:	48 c0       	rjmp	.+144    	; 0xca <__bad_interrupt>
      3a:	00 00       	nop
      3c:	46 c0       	rjmp	.+140    	; 0xca <__bad_interrupt>
      3e:	00 00       	nop
      40:	44 c0       	rjmp	.+136    	; 0xca <__bad_interrupt>
      42:	00 00       	nop
      44:	42 c0       	rjmp	.+132    	; 0xca <__bad_interrupt>
      46:	00 00       	nop
      48:	40 c0       	rjmp	.+128    	; 0xca <__bad_interrupt>
      4a:	00 00       	nop
      4c:	3e c0       	rjmp	.+124    	; 0xca <__bad_interrupt>
      4e:	00 00       	nop
      50:	3c c0       	rjmp	.+120    	; 0xca <__bad_interrupt>
      52:	00 00       	nop
      54:	3a c0       	rjmp	.+116    	; 0xca <__bad_interrupt>
      56:	00 00       	nop
      58:	38 c0       	rjmp	.+112    	; 0xca <__bad_interrupt>
      5a:	00 00       	nop
      5c:	36 c0       	rjmp	.+108    	; 0xca <__bad_interrupt>
      5e:	00 00       	nop
      60:	34 c0       	rjmp	.+104    	; 0xca <__bad_interrupt>
      62:	00 00       	nop
      64:	32 c0       	rjmp	.+100    	; 0xca <__bad_interrupt>
      66:	00 00       	nop
      68:	30 c0       	rjmp	.+96     	; 0xca <__bad_interrupt>
      6a:	00 00       	nop
      6c:	2e c0       	rjmp	.+92     	; 0xca <__bad_interrupt>
      6e:	00 00       	nop
      70:	2c c0       	rjmp	.+88     	; 0xca <__bad_interrupt>
      72:	00 00       	nop
      74:	2a c0       	rjmp	.+84     	; 0xca <__bad_interrupt>
      76:	00 00       	nop
      78:	28 c0       	rjmp	.+80     	; 0xca <__bad_interrupt>
      7a:	00 00       	nop
      7c:	26 c0       	rjmp	.+76     	; 0xca <__bad_interrupt>
      7e:	00 00       	nop
      80:	24 c0       	rjmp	.+72     	; 0xca <__bad_interrupt>
      82:	00 00       	nop
      84:	22 c0       	rjmp	.+68     	; 0xca <__bad_interrupt>
      86:	00 00       	nop
      88:	20 c0       	rjmp	.+64     	; 0xca <__bad_interrupt>
	...

0000008c <__ctors_end>:
      8c:	11 24       	eor	r1, r1
      8e:	1f be       	out	0x3f, r1	; 63
      90:	cf ef       	ldi	r28, 0xFF	; 255
      92:	d0 e4       	ldi	r29, 0x40	; 64
      94:	de bf       	out	0x3e, r29	; 62
      96:	cd bf       	out	0x3d, r28	; 61

00000098 <__do_copy_data>:
      98:	11 e0       	ldi	r17, 0x01	; 1
      9a:	a0 e0       	ldi	r26, 0x00	; 0
      9c:	b1 e0       	ldi	r27, 0x01	; 1
      9e:	e8 eb       	ldi	r30, 0xB8	; 184
      a0:	ff e1       	ldi	r31, 0x1F	; 31
      a2:	00 e0       	ldi	r16, 0x00	; 0
      a4:	0b bf       	out	0x3b, r16	; 59
      a6:	02 c0       	rjmp	.+4      	; 0xac <__do_copy_data+0x14>
      a8:	07 90       	elpm	r0, Z+
      aa:	0d 92       	st	X+, r0
      ac:	a6 30       	cpi	r26, 0x06	; 6
      ae:	b1 07       	cpc	r27, r17
      b0:	d9 f7       	brne	.-10     	; 0xa8 <__do_copy_data+0x10>

000000b2 <__do_clear_bss>:
      b2:	21 e0       	ldi	r18, 0x01	; 1
      b4:	a6 e0       	ldi	r26, 0x06	; 6
      b6:	b1 e0       	ldi	r27, 0x01	; 1
      b8:	01 c0       	rjmp	.+2      	; 0xbc <.do_clear_bss_start>

000000ba <.do_clear_bss_loop>:
      ba:	1d 92       	st	X+, r1

000000bc <.do_clear_bss_start>:
      bc:	a1 31       	cpi	r26, 0x11	; 17
      be:	b2 07       	cpc	r27, r18
      c0:	e1 f7       	brne	.-8      	; 0xba <.do_clear_bss_loop>
      c2:	0e 94 37 0e 	call	0x1c6e	; 0x1c6e <main>
      c6:	0c 94 da 0f 	jmp	0x1fb4	; 0x1fb4 <_exit>

000000ca <__bad_interrupt>:
      ca:	9a cf       	rjmp	.-204    	; 0x0 <__vectors>

000000cc <TimerOn>:
}

void PWM_off() {
	TCCR0A = 0x00;
	TCCR0B = 0x00;
}
      cc:	cf 93       	push	r28
      ce:	df 93       	push	r29
      d0:	cd b7       	in	r28, 0x3d	; 61
      d2:	de b7       	in	r29, 0x3e	; 62
      d4:	81 e8       	ldi	r24, 0x81	; 129
      d6:	90 e0       	ldi	r25, 0x00	; 0
      d8:	2b e0       	ldi	r18, 0x0B	; 11
      da:	fc 01       	movw	r30, r24
      dc:	20 83       	st	Z, r18
      de:	88 e8       	ldi	r24, 0x88	; 136
      e0:	90 e0       	ldi	r25, 0x00	; 0
      e2:	2d e7       	ldi	r18, 0x7D	; 125
      e4:	30 e0       	ldi	r19, 0x00	; 0
      e6:	fc 01       	movw	r30, r24
      e8:	31 83       	std	Z+1, r19	; 0x01
      ea:	20 83       	st	Z, r18
      ec:	8f e6       	ldi	r24, 0x6F	; 111
      ee:	90 e0       	ldi	r25, 0x00	; 0
      f0:	22 e0       	ldi	r18, 0x02	; 2
      f2:	fc 01       	movw	r30, r24
      f4:	20 83       	st	Z, r18
      f6:	84 e8       	ldi	r24, 0x84	; 132
      f8:	90 e0       	ldi	r25, 0x00	; 0
      fa:	fc 01       	movw	r30, r24
      fc:	11 82       	std	Z+1, r1	; 0x01
      fe:	10 82       	st	Z, r1
     100:	80 91 00 01 	lds	r24, 0x0100	; 0x800100 <__data_start>
     104:	90 91 01 01 	lds	r25, 0x0101	; 0x800101 <__data_start+0x1>
     108:	a0 91 02 01 	lds	r26, 0x0102	; 0x800102 <__data_start+0x2>
     10c:	b0 91 03 01 	lds	r27, 0x0103	; 0x800103 <__data_start+0x3>
     110:	80 93 07 01 	sts	0x0107, r24	; 0x800107 <_avr_timer_cntcurr>
     114:	90 93 08 01 	sts	0x0108, r25	; 0x800108 <_avr_timer_cntcurr+0x1>
     118:	a0 93 09 01 	sts	0x0109, r26	; 0x800109 <_avr_timer_cntcurr+0x2>
     11c:	b0 93 0a 01 	sts	0x010A, r27	; 0x80010a <_avr_timer_cntcurr+0x3>
     120:	8f e5       	ldi	r24, 0x5F	; 95
     122:	90 e0       	ldi	r25, 0x00	; 0
     124:	2f e5       	ldi	r18, 0x5F	; 95
     126:	30 e0       	ldi	r19, 0x00	; 0
     128:	f9 01       	movw	r30, r18
     12a:	20 81       	ld	r18, Z
     12c:	20 68       	ori	r18, 0x80	; 128
     12e:	fc 01       	movw	r30, r24
     130:	20 83       	st	Z, r18
     132:	00 00       	nop
     134:	df 91       	pop	r29
     136:	cf 91       	pop	r28
     138:	08 95       	ret

0000013a <TimerISR>:
     13a:	cf 93       	push	r28
     13c:	df 93       	push	r29
     13e:	cd b7       	in	r28, 0x3d	; 61
     140:	de b7       	in	r29, 0x3e	; 62
     142:	81 e0       	ldi	r24, 0x01	; 1
     144:	80 93 06 01 	sts	0x0106, r24	; 0x800106 <__data_end>
     148:	00 00       	nop
     14a:	df 91       	pop	r29
     14c:	cf 91       	pop	r28
     14e:	08 95       	ret

00000150 <__vector_13>:
     150:	1f 92       	push	r1
     152:	0f 92       	push	r0
     154:	00 90 5f 00 	lds	r0, 0x005F	; 0x80005f <__TEXT_REGION_LENGTH__+0x7e005f>
     158:	0f 92       	push	r0
     15a:	11 24       	eor	r1, r1
     15c:	00 90 5b 00 	lds	r0, 0x005B	; 0x80005b <__TEXT_REGION_LENGTH__+0x7e005b>
     160:	0f 92       	push	r0
     162:	2f 93       	push	r18
     164:	3f 93       	push	r19
     166:	4f 93       	push	r20
     168:	5f 93       	push	r21
     16a:	6f 93       	push	r22
     16c:	7f 93       	push	r23
     16e:	8f 93       	push	r24
     170:	9f 93       	push	r25
     172:	af 93       	push	r26
     174:	bf 93       	push	r27
     176:	ef 93       	push	r30
     178:	ff 93       	push	r31
     17a:	cf 93       	push	r28
     17c:	df 93       	push	r29
     17e:	cd b7       	in	r28, 0x3d	; 61
     180:	de b7       	in	r29, 0x3e	; 62
     182:	80 91 07 01 	lds	r24, 0x0107	; 0x800107 <_avr_timer_cntcurr>
     186:	90 91 08 01 	lds	r25, 0x0108	; 0x800108 <_avr_timer_cntcurr+0x1>
     18a:	a0 91 09 01 	lds	r26, 0x0109	; 0x800109 <_avr_timer_cntcurr+0x2>
     18e:	b0 91 0a 01 	lds	r27, 0x010A	; 0x80010a <_avr_timer_cntcurr+0x3>
     192:	01 97       	sbiw	r24, 0x01	; 1
     194:	a1 09       	sbc	r26, r1
     196:	b1 09       	sbc	r27, r1
     198:	80 93 07 01 	sts	0x0107, r24	; 0x800107 <_avr_timer_cntcurr>
     19c:	90 93 08 01 	sts	0x0108, r25	; 0x800108 <_avr_timer_cntcurr+0x1>
     1a0:	a0 93 09 01 	sts	0x0109, r26	; 0x800109 <_avr_timer_cntcurr+0x2>
     1a4:	b0 93 0a 01 	sts	0x010A, r27	; 0x80010a <_avr_timer_cntcurr+0x3>
     1a8:	80 91 07 01 	lds	r24, 0x0107	; 0x800107 <_avr_timer_cntcurr>
     1ac:	90 91 08 01 	lds	r25, 0x0108	; 0x800108 <_avr_timer_cntcurr+0x1>
     1b0:	a0 91 09 01 	lds	r26, 0x0109	; 0x800109 <_avr_timer_cntcurr+0x2>
     1b4:	b0 91 0a 01 	lds	r27, 0x010A	; 0x80010a <_avr_timer_cntcurr+0x3>
     1b8:	89 2b       	or	r24, r25
     1ba:	8a 2b       	or	r24, r26
     1bc:	8b 2b       	or	r24, r27
     1be:	89 f4       	brne	.+34     	; 0x1e2 <__vector_13+0x92>
     1c0:	bc df       	rcall	.-136    	; 0x13a <TimerISR>
     1c2:	80 91 00 01 	lds	r24, 0x0100	; 0x800100 <__data_start>
     1c6:	90 91 01 01 	lds	r25, 0x0101	; 0x800101 <__data_start+0x1>
     1ca:	a0 91 02 01 	lds	r26, 0x0102	; 0x800102 <__data_start+0x2>
     1ce:	b0 91 03 01 	lds	r27, 0x0103	; 0x800103 <__data_start+0x3>
     1d2:	80 93 07 01 	sts	0x0107, r24	; 0x800107 <_avr_timer_cntcurr>
     1d6:	90 93 08 01 	sts	0x0108, r25	; 0x800108 <_avr_timer_cntcurr+0x1>
     1da:	a0 93 09 01 	sts	0x0109, r26	; 0x800109 <_avr_timer_cntcurr+0x2>
     1de:	b0 93 0a 01 	sts	0x010A, r27	; 0x80010a <_avr_timer_cntcurr+0x3>
     1e2:	00 00       	nop
     1e4:	df 91       	pop	r29
     1e6:	cf 91       	pop	r28
     1e8:	ff 91       	pop	r31
     1ea:	ef 91       	pop	r30
     1ec:	bf 91       	pop	r27
     1ee:	af 91       	pop	r26
     1f0:	9f 91       	pop	r25
     1f2:	8f 91       	pop	r24
     1f4:	7f 91       	pop	r23
     1f6:	6f 91       	pop	r22
     1f8:	5f 91       	pop	r21
     1fa:	4f 91       	pop	r20
     1fc:	3f 91       	pop	r19
     1fe:	2f 91       	pop	r18
     200:	0f 90       	pop	r0
     202:	00 92 5b 00 	sts	0x005B, r0	; 0x80005b <__TEXT_REGION_LENGTH__+0x7e005b>
     206:	0f 90       	pop	r0
     208:	00 92 5f 00 	sts	0x005F, r0	; 0x80005f <__TEXT_REGION_LENGTH__+0x7e005f>
     20c:	0f 90       	pop	r0
     20e:	1f 90       	pop	r1
     210:	18 95       	reti

00000212 <TimerSet>:
     212:	cf 93       	push	r28
     214:	df 93       	push	r29
     216:	00 d0       	rcall	.+0      	; 0x218 <TimerSet+0x6>
     218:	00 d0       	rcall	.+0      	; 0x21a <TimerSet+0x8>
     21a:	cd b7       	in	r28, 0x3d	; 61
     21c:	de b7       	in	r29, 0x3e	; 62
     21e:	69 83       	std	Y+1, r22	; 0x01
     220:	7a 83       	std	Y+2, r23	; 0x02
     222:	8b 83       	std	Y+3, r24	; 0x03
     224:	9c 83       	std	Y+4, r25	; 0x04
     226:	89 81       	ldd	r24, Y+1	; 0x01
     228:	9a 81       	ldd	r25, Y+2	; 0x02
     22a:	ab 81       	ldd	r26, Y+3	; 0x03
     22c:	bc 81       	ldd	r27, Y+4	; 0x04
     22e:	80 93 00 01 	sts	0x0100, r24	; 0x800100 <__data_start>
     232:	90 93 01 01 	sts	0x0101, r25	; 0x800101 <__data_start+0x1>
     236:	a0 93 02 01 	sts	0x0102, r26	; 0x800102 <__data_start+0x2>
     23a:	b0 93 03 01 	sts	0x0103, r27	; 0x800103 <__data_start+0x3>
     23e:	80 91 00 01 	lds	r24, 0x0100	; 0x800100 <__data_start>
     242:	90 91 01 01 	lds	r25, 0x0101	; 0x800101 <__data_start+0x1>
     246:	a0 91 02 01 	lds	r26, 0x0102	; 0x800102 <__data_start+0x2>
     24a:	b0 91 03 01 	lds	r27, 0x0103	; 0x800103 <__data_start+0x3>
     24e:	80 93 07 01 	sts	0x0107, r24	; 0x800107 <_avr_timer_cntcurr>
     252:	90 93 08 01 	sts	0x0108, r25	; 0x800108 <_avr_timer_cntcurr+0x1>
     256:	a0 93 09 01 	sts	0x0109, r26	; 0x800109 <_avr_timer_cntcurr+0x2>
     25a:	b0 93 0a 01 	sts	0x010A, r27	; 0x80010a <_avr_timer_cntcurr+0x3>
     25e:	00 00       	nop
     260:	0f 90       	pop	r0
     262:	0f 90       	pop	r0
     264:	0f 90       	pop	r0
     266:	0f 90       	pop	r0
     268:	df 91       	pop	r29
     26a:	cf 91       	pop	r28
     26c:	08 95       	ret

0000026e <set_PWM>:
     26e:	0f 93       	push	r16
     270:	1f 93       	push	r17
     272:	cf 93       	push	r28
     274:	df 93       	push	r29
     276:	00 d0       	rcall	.+0      	; 0x278 <set_PWM+0xa>
     278:	00 d0       	rcall	.+0      	; 0x27a <set_PWM+0xc>
     27a:	cd b7       	in	r28, 0x3d	; 61
     27c:	de b7       	in	r29, 0x3e	; 62
     27e:	69 83       	std	Y+1, r22	; 0x01
     280:	7a 83       	std	Y+2, r23	; 0x02
     282:	8b 83       	std	Y+3, r24	; 0x03
     284:	9c 83       	std	Y+4, r25	; 0x04
     286:	80 91 0b 01 	lds	r24, 0x010B	; 0x80010b <current_frequency.1870>
     28a:	90 91 0c 01 	lds	r25, 0x010C	; 0x80010c <current_frequency.1870+0x1>
     28e:	a0 91 0d 01 	lds	r26, 0x010D	; 0x80010d <current_frequency.1870+0x2>
     292:	b0 91 0e 01 	lds	r27, 0x010E	; 0x80010e <current_frequency.1870+0x3>
     296:	9c 01       	movw	r18, r24
     298:	ad 01       	movw	r20, r26
     29a:	69 81       	ldd	r22, Y+1	; 0x01
     29c:	7a 81       	ldd	r23, Y+2	; 0x02
     29e:	8b 81       	ldd	r24, Y+3	; 0x03
     2a0:	9c 81       	ldd	r25, Y+4	; 0x04
     2a2:	0e 94 61 0e 	call	0x1cc2	; 0x1cc2 <__cmpsf2>
     2a6:	88 23       	and	r24, r24
     2a8:	09 f4       	brne	.+2      	; 0x2ac <set_PWM+0x3e>
     2aa:	72 c0       	rjmp	.+228    	; 0x390 <set_PWM+0x122>
     2ac:	20 e0       	ldi	r18, 0x00	; 0
     2ae:	30 e0       	ldi	r19, 0x00	; 0
     2b0:	a9 01       	movw	r20, r18
     2b2:	69 81       	ldd	r22, Y+1	; 0x01
     2b4:	7a 81       	ldd	r23, Y+2	; 0x02
     2b6:	8b 81       	ldd	r24, Y+3	; 0x03
     2b8:	9c 81       	ldd	r25, Y+4	; 0x04
     2ba:	0e 94 61 0e 	call	0x1cc2	; 0x1cc2 <__cmpsf2>
     2be:	88 23       	and	r24, r24
     2c0:	51 f4       	brne	.+20     	; 0x2d6 <set_PWM+0x68>
     2c2:	85 e4       	ldi	r24, 0x45	; 69
     2c4:	90 e0       	ldi	r25, 0x00	; 0
     2c6:	25 e4       	ldi	r18, 0x45	; 69
     2c8:	30 e0       	ldi	r19, 0x00	; 0
     2ca:	f9 01       	movw	r30, r18
     2cc:	20 81       	ld	r18, Z
     2ce:	28 70       	andi	r18, 0x08	; 8
     2d0:	fc 01       	movw	r30, r24
     2d2:	20 83       	st	Z, r18
     2d4:	09 c0       	rjmp	.+18     	; 0x2e8 <set_PWM+0x7a>
     2d6:	85 e4       	ldi	r24, 0x45	; 69
     2d8:	90 e0       	ldi	r25, 0x00	; 0
     2da:	25 e4       	ldi	r18, 0x45	; 69
     2dc:	30 e0       	ldi	r19, 0x00	; 0
     2de:	f9 01       	movw	r30, r18
     2e0:	20 81       	ld	r18, Z
     2e2:	23 60       	ori	r18, 0x03	; 3
     2e4:	fc 01       	movw	r30, r24
     2e6:	20 83       	st	Z, r18
     2e8:	28 e5       	ldi	r18, 0x58	; 88
     2ea:	39 e3       	ldi	r19, 0x39	; 57
     2ec:	44 e7       	ldi	r20, 0x74	; 116
     2ee:	5f e3       	ldi	r21, 0x3F	; 63
     2f0:	69 81       	ldd	r22, Y+1	; 0x01
     2f2:	7a 81       	ldd	r23, Y+2	; 0x02
     2f4:	8b 81       	ldd	r24, Y+3	; 0x03
     2f6:	9c 81       	ldd	r25, Y+4	; 0x04
     2f8:	0e 94 61 0e 	call	0x1cc2	; 0x1cc2 <__cmpsf2>
     2fc:	88 23       	and	r24, r24
     2fe:	34 f4       	brge	.+12     	; 0x30c <set_PWM+0x9e>
     300:	87 e4       	ldi	r24, 0x47	; 71
     302:	90 e0       	ldi	r25, 0x00	; 0
     304:	2f ef       	ldi	r18, 0xFF	; 255
     306:	fc 01       	movw	r30, r24
     308:	20 83       	st	Z, r18
     30a:	32 c0       	rjmp	.+100    	; 0x370 <set_PWM+0x102>
     30c:	20 e0       	ldi	r18, 0x00	; 0
     30e:	34 e2       	ldi	r19, 0x24	; 36
     310:	44 ef       	ldi	r20, 0xF4	; 244
     312:	56 e4       	ldi	r21, 0x46	; 70
     314:	69 81       	ldd	r22, Y+1	; 0x01
     316:	7a 81       	ldd	r23, Y+2	; 0x02
     318:	8b 81       	ldd	r24, Y+3	; 0x03
     31a:	9c 81       	ldd	r25, Y+4	; 0x04
     31c:	0e 94 73 0f 	call	0x1ee6	; 0x1ee6 <__gesf2>
     320:	18 16       	cp	r1, r24
     322:	2c f4       	brge	.+10     	; 0x32e <set_PWM+0xc0>
     324:	87 e4       	ldi	r24, 0x47	; 71
     326:	90 e0       	ldi	r25, 0x00	; 0
     328:	fc 01       	movw	r30, r24
     32a:	10 82       	st	Z, r1
     32c:	21 c0       	rjmp	.+66     	; 0x370 <set_PWM+0x102>
     32e:	07 e4       	ldi	r16, 0x47	; 71
     330:	10 e0       	ldi	r17, 0x00	; 0
     332:	20 e0       	ldi	r18, 0x00	; 0
     334:	30 e0       	ldi	r19, 0x00	; 0
     336:	40 e0       	ldi	r20, 0x00	; 0
     338:	53 e4       	ldi	r21, 0x43	; 67
     33a:	69 81       	ldd	r22, Y+1	; 0x01
     33c:	7a 81       	ldd	r23, Y+2	; 0x02
     33e:	8b 81       	ldd	r24, Y+3	; 0x03
     340:	9c 81       	ldd	r25, Y+4	; 0x04
     342:	0e 94 77 0f 	call	0x1eee	; 0x1eee <__mulsf3>
     346:	dc 01       	movw	r26, r24
     348:	cb 01       	movw	r24, r22
     34a:	9c 01       	movw	r18, r24
     34c:	ad 01       	movw	r20, r26
     34e:	60 e0       	ldi	r22, 0x00	; 0
     350:	74 e2       	ldi	r23, 0x24	; 36
     352:	84 ef       	ldi	r24, 0xF4	; 244
     354:	9a e4       	ldi	r25, 0x4A	; 74
     356:	0e 94 65 0e 	call	0x1cca	; 0x1cca <__divsf3>
     35a:	dc 01       	movw	r26, r24
     35c:	cb 01       	movw	r24, r22
     35e:	bc 01       	movw	r22, r24
     360:	cd 01       	movw	r24, r26
     362:	0e 94 cd 0e 	call	0x1d9a	; 0x1d9a <__fixsfsi>
     366:	dc 01       	movw	r26, r24
     368:	cb 01       	movw	r24, r22
     36a:	81 50       	subi	r24, 0x01	; 1
     36c:	f8 01       	movw	r30, r16
     36e:	80 83       	st	Z, r24
     370:	86 e4       	ldi	r24, 0x46	; 70
     372:	90 e0       	ldi	r25, 0x00	; 0
     374:	fc 01       	movw	r30, r24
     376:	10 82       	st	Z, r1
     378:	89 81       	ldd	r24, Y+1	; 0x01
     37a:	9a 81       	ldd	r25, Y+2	; 0x02
     37c:	ab 81       	ldd	r26, Y+3	; 0x03
     37e:	bc 81       	ldd	r27, Y+4	; 0x04
     380:	80 93 0b 01 	sts	0x010B, r24	; 0x80010b <current_frequency.1870>
     384:	90 93 0c 01 	sts	0x010C, r25	; 0x80010c <current_frequency.1870+0x1>
     388:	a0 93 0d 01 	sts	0x010D, r26	; 0x80010d <current_frequency.1870+0x2>
     38c:	b0 93 0e 01 	sts	0x010E, r27	; 0x80010e <current_frequency.1870+0x3>
     390:	00 00       	nop
     392:	0f 90       	pop	r0
     394:	0f 90       	pop	r0
     396:	0f 90       	pop	r0
     398:	0f 90       	pop	r0
     39a:	df 91       	pop	r29
     39c:	cf 91       	pop	r28
     39e:	1f 91       	pop	r17
     3a0:	0f 91       	pop	r16
     3a2:	08 95       	ret

000003a4 <PWM_on>:
     3a4:	cf 93       	push	r28
     3a6:	df 93       	push	r29
     3a8:	cd b7       	in	r28, 0x3d	; 61
     3aa:	de b7       	in	r29, 0x3e	; 62
     3ac:	84 e4       	ldi	r24, 0x44	; 68
     3ae:	90 e0       	ldi	r25, 0x00	; 0
     3b0:	29 e4       	ldi	r18, 0x49	; 73
     3b2:	fc 01       	movw	r30, r24
     3b4:	20 83       	st	Z, r18
     3b6:	85 e4       	ldi	r24, 0x45	; 69
     3b8:	90 e0       	ldi	r25, 0x00	; 0
     3ba:	2b e0       	ldi	r18, 0x0B	; 11
     3bc:	fc 01       	movw	r30, r24
     3be:	20 83       	st	Z, r18
     3c0:	60 e0       	ldi	r22, 0x00	; 0
     3c2:	70 e0       	ldi	r23, 0x00	; 0
     3c4:	cb 01       	movw	r24, r22
     3c6:	53 df       	rcall	.-346    	; 0x26e <set_PWM>
     3c8:	00 00       	nop
     3ca:	df 91       	pop	r29
     3cc:	cf 91       	pop	r28
     3ce:	08 95       	ret

000003d0 <play>:

void play() {
     3d0:	cf 93       	push	r28
     3d2:	df 93       	push	r29
     3d4:	cd b7       	in	r28, 0x3d	; 61
     3d6:	de b7       	in	r29, 0x3e	; 62
     3d8:	c6 5b       	subi	r28, 0xB6	; 182
     3da:	d2 40       	sbci	r29, 0x02	; 2
     3dc:	0f b6       	in	r0, 0x3f	; 63
     3de:	f8 94       	cli
     3e0:	de bf       	out	0x3e, r29	; 62
     3e2:	0f be       	out	0x3f, r0	; 63
     3e4:	cd bf       	out	0x3d, r28	; 61
	const double G3 = 196.0, A3 = 220.0, B3 = 246.94, C4 = 261.63, Db4 = 277.18, D4 = 293.66, Eb4 = 311.13, E4 = 329.63, F4 = 349.23, Gb4 = 369.99, G4 = 392, Ab4 = 415.30, A4 = 440, Bb4 = 466.16, B4 = 494.88, C5 = 523.25, Db5 = 544.37, D5 = 587.33;
     3e6:	80 e0       	ldi	r24, 0x00	; 0
     3e8:	90 e0       	ldi	r25, 0x00	; 0
     3ea:	a4 e4       	ldi	r26, 0x44	; 68
     3ec:	b3 e4       	ldi	r27, 0x43	; 67
     3ee:	89 83       	std	Y+1, r24	; 0x01
     3f0:	9a 83       	std	Y+2, r25	; 0x02
     3f2:	ab 83       	std	Y+3, r26	; 0x03
     3f4:	bc 83       	std	Y+4, r27	; 0x04
     3f6:	80 e0       	ldi	r24, 0x00	; 0
     3f8:	90 e0       	ldi	r25, 0x00	; 0
     3fa:	ac e5       	ldi	r26, 0x5C	; 92
     3fc:	b3 e4       	ldi	r27, 0x43	; 67
     3fe:	8d 83       	std	Y+5, r24	; 0x05
     400:	9e 83       	std	Y+6, r25	; 0x06
     402:	af 83       	std	Y+7, r26	; 0x07
     404:	b8 87       	std	Y+8, r27	; 0x08
     406:	84 ea       	ldi	r24, 0xA4	; 164
     408:	90 ef       	ldi	r25, 0xF0	; 240
     40a:	a6 e7       	ldi	r26, 0x76	; 118
     40c:	b3 e4       	ldi	r27, 0x43	; 67
     40e:	89 87       	std	Y+9, r24	; 0x09
     410:	9a 87       	std	Y+10, r25	; 0x0a
     412:	ab 87       	std	Y+11, r26	; 0x0b
     414:	bc 87       	std	Y+12, r27	; 0x0c
     416:	84 ea       	ldi	r24, 0xA4	; 164
     418:	90 ed       	ldi	r25, 0xD0	; 208
     41a:	a2 e8       	ldi	r26, 0x82	; 130
     41c:	b3 e4       	ldi	r27, 0x43	; 67
     41e:	8d 87       	std	Y+13, r24	; 0x0d
     420:	9e 87       	std	Y+14, r25	; 0x0e
     422:	af 87       	std	Y+15, r26	; 0x0f
     424:	b8 8b       	std	Y+16, r27	; 0x10
     426:	8a e0       	ldi	r24, 0x0A	; 10
     428:	97 e9       	ldi	r25, 0x97	; 151
     42a:	aa e8       	ldi	r26, 0x8A	; 138
     42c:	b3 e4       	ldi	r27, 0x43	; 67
     42e:	89 8b       	std	Y+17, r24	; 0x11
     430:	9a 8b       	std	Y+18, r25	; 0x12
     432:	ab 8b       	std	Y+19, r26	; 0x13
     434:	bc 8b       	std	Y+20, r27	; 0x14
     436:	8b e7       	ldi	r24, 0x7B	; 123
     438:	94 ed       	ldi	r25, 0xD4	; 212
     43a:	a2 e9       	ldi	r26, 0x92	; 146
     43c:	b3 e4       	ldi	r27, 0x43	; 67
     43e:	8d 8b       	std	Y+21, r24	; 0x15
     440:	9e 8b       	std	Y+22, r25	; 0x16
     442:	af 8b       	std	Y+23, r26	; 0x17
     444:	b8 8f       	std	Y+24, r27	; 0x18
     446:	84 ea       	ldi	r24, 0xA4	; 164
     448:	90 e9       	ldi	r25, 0x90	; 144
     44a:	ab e9       	ldi	r26, 0x9B	; 155
     44c:	b3 e4       	ldi	r27, 0x43	; 67
     44e:	89 8f       	std	Y+25, r24	; 0x19
     450:	9a 8f       	std	Y+26, r25	; 0x1a
     452:	ab 8f       	std	Y+27, r26	; 0x1b
     454:	bc 8f       	std	Y+28, r27	; 0x1c
     456:	84 ea       	ldi	r24, 0xA4	; 164
     458:	90 ed       	ldi	r25, 0xD0	; 208
     45a:	a4 ea       	ldi	r26, 0xA4	; 164
     45c:	b3 e4       	ldi	r27, 0x43	; 67
     45e:	8d 8f       	std	Y+29, r24	; 0x1d
     460:	9e 8f       	std	Y+30, r25	; 0x1e
     462:	af 8f       	std	Y+31, r26	; 0x1f
     464:	b8 a3       	std	Y+32, r27	; 0x20
     466:	81 e7       	ldi	r24, 0x71	; 113
     468:	9d e9       	ldi	r25, 0x9D	; 157
     46a:	ae ea       	ldi	r26, 0xAE	; 174
     46c:	b3 e4       	ldi	r27, 0x43	; 67
     46e:	89 a3       	std	Y+33, r24	; 0x21
     470:	9a a3       	std	Y+34, r25	; 0x22
     472:	ab a3       	std	Y+35, r26	; 0x23
     474:	bc a3       	std	Y+36, r27	; 0x24
     476:	88 eb       	ldi	r24, 0xB8	; 184
     478:	9e ef       	ldi	r25, 0xFE	; 254
     47a:	a8 eb       	ldi	r26, 0xB8	; 184
     47c:	b3 e4       	ldi	r27, 0x43	; 67
     47e:	8d a3       	std	Y+37, r24	; 0x25
     480:	9e a3       	std	Y+38, r25	; 0x26
     482:	af a3       	std	Y+39, r26	; 0x27
     484:	b8 a7       	std	Y+40, r27	; 0x28
     486:	80 e0       	ldi	r24, 0x00	; 0
     488:	90 e0       	ldi	r25, 0x00	; 0
     48a:	a4 ec       	ldi	r26, 0xC4	; 196
     48c:	b3 e4       	ldi	r27, 0x43	; 67
     48e:	89 a7       	std	Y+41, r24	; 0x29
     490:	9a a7       	std	Y+42, r25	; 0x2a
     492:	ab a7       	std	Y+43, r26	; 0x2b
     494:	bc a7       	std	Y+44, r27	; 0x2c
     496:	86 e6       	ldi	r24, 0x66	; 102
     498:	96 ea       	ldi	r25, 0xA6	; 166
     49a:	af ec       	ldi	r26, 0xCF	; 207
     49c:	b3 e4       	ldi	r27, 0x43	; 67
     49e:	8d a7       	std	Y+45, r24	; 0x2d
     4a0:	9e a7       	std	Y+46, r25	; 0x2e
     4a2:	af a7       	std	Y+47, r26	; 0x2f
     4a4:	b8 ab       	std	Y+48, r27	; 0x30
     4a6:	80 e0       	ldi	r24, 0x00	; 0
     4a8:	90 e0       	ldi	r25, 0x00	; 0
     4aa:	ac ed       	ldi	r26, 0xDC	; 220
     4ac:	b3 e4       	ldi	r27, 0x43	; 67
     4ae:	89 ab       	std	Y+49, r24	; 0x31
     4b0:	9a ab       	std	Y+50, r25	; 0x32
     4b2:	ab ab       	std	Y+51, r26	; 0x33
     4b4:	bc ab       	std	Y+52, r27	; 0x34
     4b6:	8b e7       	ldi	r24, 0x7B	; 123
     4b8:	94 e1       	ldi	r25, 0x14	; 20
     4ba:	a9 ee       	ldi	r26, 0xE9	; 233
     4bc:	b3 e4       	ldi	r27, 0x43	; 67
     4be:	8d ab       	std	Y+53, r24	; 0x35
     4c0:	9e ab       	std	Y+54, r25	; 0x36
     4c2:	af ab       	std	Y+55, r26	; 0x37
     4c4:	b8 af       	std	Y+56, r27	; 0x38
     4c6:	84 ea       	ldi	r24, 0xA4	; 164
     4c8:	90 e7       	ldi	r25, 0x70	; 112
     4ca:	a7 ef       	ldi	r26, 0xF7	; 247
     4cc:	b3 e4       	ldi	r27, 0x43	; 67
     4ce:	89 af       	std	Y+57, r24	; 0x39
     4d0:	9a af       	std	Y+58, r25	; 0x3a
     4d2:	ab af       	std	Y+59, r26	; 0x3b
     4d4:	bc af       	std	Y+60, r27	; 0x3c
     4d6:	80 e0       	ldi	r24, 0x00	; 0
     4d8:	90 ed       	ldi	r25, 0xD0	; 208
     4da:	a2 e0       	ldi	r26, 0x02	; 2
     4dc:	b4 e4       	ldi	r27, 0x44	; 68
     4de:	9e 01       	movw	r18, r28
     4e0:	23 5c       	subi	r18, 0xC3	; 195
     4e2:	3f 4f       	sbci	r19, 0xFF	; 255
     4e4:	f9 01       	movw	r30, r18
     4e6:	80 83       	st	Z, r24
     4e8:	91 83       	std	Z+1, r25	; 0x01
     4ea:	a2 83       	std	Z+2, r26	; 0x02
     4ec:	b3 83       	std	Z+3, r27	; 0x03
     4ee:	9e 01       	movw	r18, r28
     4f0:	2f 5b       	subi	r18, 0xBF	; 191
     4f2:	3f 4f       	sbci	r19, 0xFF	; 255
     4f4:	8e ea       	ldi	r24, 0xAE	; 174
     4f6:	97 e1       	ldi	r25, 0x17	; 23
     4f8:	a8 e0       	ldi	r26, 0x08	; 8
     4fa:	b4 e4       	ldi	r27, 0x44	; 68
     4fc:	f9 01       	movw	r30, r18
     4fe:	80 83       	st	Z, r24
     500:	91 83       	std	Z+1, r25	; 0x01
     502:	a2 83       	std	Z+2, r26	; 0x02
     504:	b3 83       	std	Z+3, r27	; 0x03
     506:	9e 01       	movw	r18, r28
     508:	2b 5b       	subi	r18, 0xBB	; 187
     50a:	3f 4f       	sbci	r19, 0xFF	; 255
     50c:	8f e1       	ldi	r24, 0x1F	; 31
     50e:	95 ed       	ldi	r25, 0xD5	; 213
     510:	a2 e1       	ldi	r26, 0x12	; 18
     512:	b4 e4       	ldi	r27, 0x44	; 68
     514:	f9 01       	movw	r30, r18
     516:	80 83       	st	Z, r24
     518:	91 83       	std	Z+1, r25	; 0x01
     51a:	a2 83       	std	Z+2, r26	; 0x02
     51c:	b3 83       	std	Z+3, r27	; 0x03
	const short whole = 1000;
     51e:	ce 01       	movw	r24, r28
     520:	87 5b       	subi	r24, 0xB7	; 183
     522:	9f 4f       	sbci	r25, 0xFF	; 255
     524:	28 ee       	ldi	r18, 0xE8	; 232
     526:	33 e0       	ldi	r19, 0x03	; 3
     528:	fc 01       	movw	r30, r24
     52a:	31 83       	std	Z+1, r19	; 0x01
     52c:	20 83       	st	Z, r18
	const short halfdot = whole * 3 / 4;
     52e:	ce 01       	movw	r24, r28
     530:	87 5b       	subi	r24, 0xB7	; 183
     532:	9f 4f       	sbci	r25, 0xFF	; 255
     534:	fc 01       	movw	r30, r24
     536:	20 81       	ld	r18, Z
     538:	31 81       	ldd	r19, Z+1	; 0x01
     53a:	c9 01       	movw	r24, r18
     53c:	88 0f       	add	r24, r24
     53e:	99 1f       	adc	r25, r25
     540:	82 0f       	add	r24, r18
     542:	93 1f       	adc	r25, r19
     544:	9e 01       	movw	r18, r28
     546:	25 5b       	subi	r18, 0xB5	; 181
     548:	3f 4f       	sbci	r19, 0xFF	; 255
     54a:	99 23       	and	r25, r25
     54c:	0c f4       	brge	.+2      	; 0x550 <__LOCK_REGION_LENGTH__+0x150>
     54e:	03 96       	adiw	r24, 0x03	; 3
     550:	95 95       	asr	r25
     552:	87 95       	ror	r24
     554:	95 95       	asr	r25
     556:	87 95       	ror	r24
     558:	f9 01       	movw	r30, r18
     55a:	91 83       	std	Z+1, r25	; 0x01
     55c:	80 83       	st	Z, r24
	const short half = whole/2;
     55e:	9e 01       	movw	r18, r28
     560:	23 5b       	subi	r18, 0xB3	; 179
     562:	3f 4f       	sbci	r19, 0xFF	; 255
     564:	ce 01       	movw	r24, r28
     566:	87 5b       	subi	r24, 0xB7	; 183
     568:	9f 4f       	sbci	r25, 0xFF	; 255
     56a:	fc 01       	movw	r30, r24
     56c:	80 81       	ld	r24, Z
     56e:	91 81       	ldd	r25, Z+1	; 0x01
     570:	99 23       	and	r25, r25
     572:	0c f4       	brge	.+2      	; 0x576 <__LOCK_REGION_LENGTH__+0x176>
     574:	01 96       	adiw	r24, 0x01	; 1
     576:	95 95       	asr	r25
     578:	87 95       	ror	r24
     57a:	f9 01       	movw	r30, r18
     57c:	91 83       	std	Z+1, r25	; 0x01
     57e:	80 83       	st	Z, r24
	const short quarter = half/2;
     580:	9e 01       	movw	r18, r28
     582:	21 5b       	subi	r18, 0xB1	; 177
     584:	3f 4f       	sbci	r19, 0xFF	; 255
     586:	ce 01       	movw	r24, r28
     588:	83 5b       	subi	r24, 0xB3	; 179
     58a:	9f 4f       	sbci	r25, 0xFF	; 255
     58c:	fc 01       	movw	r30, r24
     58e:	80 81       	ld	r24, Z
     590:	91 81       	ldd	r25, Z+1	; 0x01
     592:	99 23       	and	r25, r25
     594:	0c f4       	brge	.+2      	; 0x598 <__LOCK_REGION_LENGTH__+0x198>
     596:	01 96       	adiw	r24, 0x01	; 1
     598:	95 95       	asr	r25
     59a:	87 95       	ror	r24
     59c:	f9 01       	movw	r30, r18
     59e:	91 83       	std	Z+1, r25	; 0x01
     5a0:	80 83       	st	Z, r24
	const double notes[] = {
     5a2:	9e 01       	movw	r18, r28
     5a4:	2d 5a       	subi	r18, 0xAD	; 173
     5a6:	3f 4f       	sbci	r19, 0xFF	; 255
     5a8:	8d 8d       	ldd	r24, Y+29	; 0x1d
     5aa:	9e 8d       	ldd	r25, Y+30	; 0x1e
     5ac:	af 8d       	ldd	r26, Y+31	; 0x1f
     5ae:	b8 a1       	ldd	r27, Y+32	; 0x20
     5b0:	f9 01       	movw	r30, r18
     5b2:	80 83       	st	Z, r24
     5b4:	91 83       	std	Z+1, r25	; 0x01
     5b6:	a2 83       	std	Z+2, r26	; 0x02
     5b8:	b3 83       	std	Z+3, r27	; 0x03
     5ba:	9e 01       	movw	r18, r28
     5bc:	2d 5a       	subi	r18, 0xAD	; 173
     5be:	3f 4f       	sbci	r19, 0xFF	; 255
     5c0:	89 85       	ldd	r24, Y+9	; 0x09
     5c2:	9a 85       	ldd	r25, Y+10	; 0x0a
     5c4:	ab 85       	ldd	r26, Y+11	; 0x0b
     5c6:	bc 85       	ldd	r27, Y+12	; 0x0c
     5c8:	f9 01       	movw	r30, r18
     5ca:	84 83       	std	Z+4, r24	; 0x04
     5cc:	95 83       	std	Z+5, r25	; 0x05
     5ce:	a6 83       	std	Z+6, r26	; 0x06
     5d0:	b7 83       	std	Z+7, r27	; 0x07
     5d2:	9e 01       	movw	r18, r28
     5d4:	2d 5a       	subi	r18, 0xAD	; 173
     5d6:	3f 4f       	sbci	r19, 0xFF	; 255
     5d8:	8d 85       	ldd	r24, Y+13	; 0x0d
     5da:	9e 85       	ldd	r25, Y+14	; 0x0e
     5dc:	af 85       	ldd	r26, Y+15	; 0x0f
     5de:	b8 89       	ldd	r27, Y+16	; 0x10
     5e0:	f9 01       	movw	r30, r18
     5e2:	80 87       	std	Z+8, r24	; 0x08
     5e4:	91 87       	std	Z+9, r25	; 0x09
     5e6:	a2 87       	std	Z+10, r26	; 0x0a
     5e8:	b3 87       	std	Z+11, r27	; 0x0b
     5ea:	9e 01       	movw	r18, r28
     5ec:	2d 5a       	subi	r18, 0xAD	; 173
     5ee:	3f 4f       	sbci	r19, 0xFF	; 255
     5f0:	8d 89       	ldd	r24, Y+21	; 0x15
     5f2:	9e 89       	ldd	r25, Y+22	; 0x16
     5f4:	af 89       	ldd	r26, Y+23	; 0x17
     5f6:	b8 8d       	ldd	r27, Y+24	; 0x18
     5f8:	f9 01       	movw	r30, r18
     5fa:	84 87       	std	Z+12, r24	; 0x0c
     5fc:	95 87       	std	Z+13, r25	; 0x0d
     5fe:	a6 87       	std	Z+14, r26	; 0x0e
     600:	b7 87       	std	Z+15, r27	; 0x0f
     602:	9e 01       	movw	r18, r28
     604:	2d 5a       	subi	r18, 0xAD	; 173
     606:	3f 4f       	sbci	r19, 0xFF	; 255
     608:	8d 85       	ldd	r24, Y+13	; 0x0d
     60a:	9e 85       	ldd	r25, Y+14	; 0x0e
     60c:	af 85       	ldd	r26, Y+15	; 0x0f
     60e:	b8 89       	ldd	r27, Y+16	; 0x10
     610:	f9 01       	movw	r30, r18
     612:	80 8b       	std	Z+16, r24	; 0x10
     614:	91 8b       	std	Z+17, r25	; 0x11
     616:	a2 8b       	std	Z+18, r26	; 0x12
     618:	b3 8b       	std	Z+19, r27	; 0x13
     61a:	9e 01       	movw	r18, r28
     61c:	2d 5a       	subi	r18, 0xAD	; 173
     61e:	3f 4f       	sbci	r19, 0xFF	; 255
     620:	89 85       	ldd	r24, Y+9	; 0x09
     622:	9a 85       	ldd	r25, Y+10	; 0x0a
     624:	ab 85       	ldd	r26, Y+11	; 0x0b
     626:	bc 85       	ldd	r27, Y+12	; 0x0c
     628:	f9 01       	movw	r30, r18
     62a:	84 8b       	std	Z+20, r24	; 0x14
     62c:	95 8b       	std	Z+21, r25	; 0x15
     62e:	a6 8b       	std	Z+22, r26	; 0x16
     630:	b7 8b       	std	Z+23, r27	; 0x17
     632:	9e 01       	movw	r18, r28
     634:	2d 5a       	subi	r18, 0xAD	; 173
     636:	3f 4f       	sbci	r19, 0xFF	; 255
     638:	89 a9       	ldd	r24, Y+49	; 0x31
     63a:	9a a9       	ldd	r25, Y+50	; 0x32
     63c:	ab a9       	ldd	r26, Y+51	; 0x33
     63e:	bc a9       	ldd	r27, Y+52	; 0x34
     640:	f9 01       	movw	r30, r18
     642:	80 8f       	std	Z+24, r24	; 0x18
     644:	91 8f       	std	Z+25, r25	; 0x19
     646:	a2 8f       	std	Z+26, r26	; 0x1a
     648:	b3 8f       	std	Z+27, r27	; 0x1b
     64a:	9e 01       	movw	r18, r28
     64c:	2d 5a       	subi	r18, 0xAD	; 173
     64e:	3f 4f       	sbci	r19, 0xFF	; 255
     650:	89 a9       	ldd	r24, Y+49	; 0x31
     652:	9a a9       	ldd	r25, Y+50	; 0x32
     654:	ab a9       	ldd	r26, Y+51	; 0x33
     656:	bc a9       	ldd	r27, Y+52	; 0x34
     658:	f9 01       	movw	r30, r18
     65a:	84 8f       	std	Z+28, r24	; 0x1c
     65c:	95 8f       	std	Z+29, r25	; 0x1d
     65e:	a6 8f       	std	Z+30, r26	; 0x1e
     660:	b7 8f       	std	Z+31, r27	; 0x1f
     662:	9e 01       	movw	r18, r28
     664:	2d 5a       	subi	r18, 0xAD	; 173
     666:	3f 4f       	sbci	r19, 0xFF	; 255
     668:	8d 85       	ldd	r24, Y+13	; 0x0d
     66a:	9e 85       	ldd	r25, Y+14	; 0x0e
     66c:	af 85       	ldd	r26, Y+15	; 0x0f
     66e:	b8 89       	ldd	r27, Y+16	; 0x10
     670:	f9 01       	movw	r30, r18
     672:	80 a3       	std	Z+32, r24	; 0x20
     674:	91 a3       	std	Z+33, r25	; 0x21
     676:	a2 a3       	std	Z+34, r26	; 0x22
     678:	b3 a3       	std	Z+35, r27	; 0x23
     67a:	9e 01       	movw	r18, r28
     67c:	2d 5a       	subi	r18, 0xAD	; 173
     67e:	3f 4f       	sbci	r19, 0xFF	; 255
     680:	8d 8d       	ldd	r24, Y+29	; 0x1d
     682:	9e 8d       	ldd	r25, Y+30	; 0x1e
     684:	af 8d       	ldd	r26, Y+31	; 0x1f
     686:	b8 a1       	ldd	r27, Y+32	; 0x20
     688:	f9 01       	movw	r30, r18
     68a:	84 a3       	std	Z+36, r24	; 0x24
     68c:	95 a3       	std	Z+37, r25	; 0x25
     68e:	a6 a3       	std	Z+38, r26	; 0x26
     690:	b7 a3       	std	Z+39, r27	; 0x27
     692:	9e 01       	movw	r18, r28
     694:	2d 5a       	subi	r18, 0xAD	; 173
     696:	3f 4f       	sbci	r19, 0xFF	; 255
     698:	8d 89       	ldd	r24, Y+21	; 0x15
     69a:	9e 89       	ldd	r25, Y+22	; 0x16
     69c:	af 89       	ldd	r26, Y+23	; 0x17
     69e:	b8 8d       	ldd	r27, Y+24	; 0x18
     6a0:	f9 01       	movw	r30, r18
     6a2:	80 a7       	std	Z+40, r24	; 0x28
     6a4:	91 a7       	std	Z+41, r25	; 0x29
     6a6:	a2 a7       	std	Z+42, r26	; 0x2a
     6a8:	b3 a7       	std	Z+43, r27	; 0x2b
     6aa:	9e 01       	movw	r18, r28
     6ac:	2d 5a       	subi	r18, 0xAD	; 173
     6ae:	3f 4f       	sbci	r19, 0xFF	; 255
     6b0:	8d 85       	ldd	r24, Y+13	; 0x0d
     6b2:	9e 85       	ldd	r25, Y+14	; 0x0e
     6b4:	af 85       	ldd	r26, Y+15	; 0x0f
     6b6:	b8 89       	ldd	r27, Y+16	; 0x10
     6b8:	f9 01       	movw	r30, r18
     6ba:	84 a7       	std	Z+44, r24	; 0x2c
     6bc:	95 a7       	std	Z+45, r25	; 0x2d
     6be:	a6 a7       	std	Z+46, r26	; 0x2e
     6c0:	b7 a7       	std	Z+47, r27	; 0x2f
     6c2:	9e 01       	movw	r18, r28
     6c4:	2d 5a       	subi	r18, 0xAD	; 173
     6c6:	3f 4f       	sbci	r19, 0xFF	; 255
     6c8:	89 85       	ldd	r24, Y+9	; 0x09
     6ca:	9a 85       	ldd	r25, Y+10	; 0x0a
     6cc:	ab 85       	ldd	r26, Y+11	; 0x0b
     6ce:	bc 85       	ldd	r27, Y+12	; 0x0c
     6d0:	f9 01       	movw	r30, r18
     6d2:	80 ab       	std	Z+48, r24	; 0x30
     6d4:	91 ab       	std	Z+49, r25	; 0x31
     6d6:	a2 ab       	std	Z+50, r26	; 0x32
     6d8:	b3 ab       	std	Z+51, r27	; 0x33
     6da:	9e 01       	movw	r18, r28
     6dc:	2d 5a       	subi	r18, 0xAD	; 173
     6de:	3f 4f       	sbci	r19, 0xFF	; 255
     6e0:	89 85       	ldd	r24, Y+9	; 0x09
     6e2:	9a 85       	ldd	r25, Y+10	; 0x0a
     6e4:	ab 85       	ldd	r26, Y+11	; 0x0b
     6e6:	bc 85       	ldd	r27, Y+12	; 0x0c
     6e8:	f9 01       	movw	r30, r18
     6ea:	84 ab       	std	Z+52, r24	; 0x34
     6ec:	95 ab       	std	Z+53, r25	; 0x35
     6ee:	a6 ab       	std	Z+54, r26	; 0x36
     6f0:	b7 ab       	std	Z+55, r27	; 0x37
     6f2:	9e 01       	movw	r18, r28
     6f4:	2d 5a       	subi	r18, 0xAD	; 173
     6f6:	3f 4f       	sbci	r19, 0xFF	; 255
     6f8:	8d 85       	ldd	r24, Y+13	; 0x0d
     6fa:	9e 85       	ldd	r25, Y+14	; 0x0e
     6fc:	af 85       	ldd	r26, Y+15	; 0x0f
     6fe:	b8 89       	ldd	r27, Y+16	; 0x10
     700:	f9 01       	movw	r30, r18
     702:	80 af       	std	Z+56, r24	; 0x38
     704:	91 af       	std	Z+57, r25	; 0x39
     706:	a2 af       	std	Z+58, r26	; 0x3a
     708:	b3 af       	std	Z+59, r27	; 0x3b
     70a:	9e 01       	movw	r18, r28
     70c:	2d 5a       	subi	r18, 0xAD	; 173
     70e:	3f 4f       	sbci	r19, 0xFF	; 255
     710:	8d 89       	ldd	r24, Y+21	; 0x15
     712:	9e 89       	ldd	r25, Y+22	; 0x16
     714:	af 89       	ldd	r26, Y+23	; 0x17
     716:	b8 8d       	ldd	r27, Y+24	; 0x18
     718:	f9 01       	movw	r30, r18
     71a:	84 af       	std	Z+60, r24	; 0x3c
     71c:	95 af       	std	Z+61, r25	; 0x3d
     71e:	a6 af       	std	Z+62, r26	; 0x3e
     720:	b7 af       	std	Z+63, r27	; 0x3f
     722:	ce 01       	movw	r24, r28
     724:	8d 5a       	subi	r24, 0xAD	; 173
     726:	9f 4f       	sbci	r25, 0xFF	; 255
     728:	9c 01       	movw	r18, r24
     72a:	20 5c       	subi	r18, 0xC0	; 192
     72c:	3f 4f       	sbci	r19, 0xFF	; 255
     72e:	8d 8d       	ldd	r24, Y+29	; 0x1d
     730:	9e 8d       	ldd	r25, Y+30	; 0x1e
     732:	af 8d       	ldd	r26, Y+31	; 0x1f
     734:	b8 a1       	ldd	r27, Y+32	; 0x20
     736:	f9 01       	movw	r30, r18
     738:	80 83       	st	Z, r24
     73a:	91 83       	std	Z+1, r25	; 0x01
     73c:	a2 83       	std	Z+2, r26	; 0x02
     73e:	b3 83       	std	Z+3, r27	; 0x03
     740:	ce 01       	movw	r24, r28
     742:	8d 5a       	subi	r24, 0xAD	; 173
     744:	9f 4f       	sbci	r25, 0xFF	; 255
     746:	9c 01       	movw	r18, r24
     748:	2c 5b       	subi	r18, 0xBC	; 188
     74a:	3f 4f       	sbci	r19, 0xFF	; 255
     74c:	8d 85       	ldd	r24, Y+13	; 0x0d
     74e:	9e 85       	ldd	r25, Y+14	; 0x0e
     750:	af 85       	ldd	r26, Y+15	; 0x0f
     752:	b8 89       	ldd	r27, Y+16	; 0x10
     754:	f9 01       	movw	r30, r18
     756:	80 83       	st	Z, r24
     758:	91 83       	std	Z+1, r25	; 0x01
     75a:	a2 83       	std	Z+2, r26	; 0x02
     75c:	b3 83       	std	Z+3, r27	; 0x03
     75e:	ce 01       	movw	r24, r28
     760:	8d 5a       	subi	r24, 0xAD	; 173
     762:	9f 4f       	sbci	r25, 0xFF	; 255
     764:	9c 01       	movw	r18, r24
     766:	28 5b       	subi	r18, 0xB8	; 184
     768:	3f 4f       	sbci	r19, 0xFF	; 255
     76a:	89 a9       	ldd	r24, Y+49	; 0x31
     76c:	9a a9       	ldd	r25, Y+50	; 0x32
     76e:	ab a9       	ldd	r26, Y+51	; 0x33
     770:	bc a9       	ldd	r27, Y+52	; 0x34
     772:	f9 01       	movw	r30, r18
     774:	80 83       	st	Z, r24
     776:	91 83       	std	Z+1, r25	; 0x01
     778:	a2 83       	std	Z+2, r26	; 0x02
     77a:	b3 83       	std	Z+3, r27	; 0x03
     77c:	ce 01       	movw	r24, r28
     77e:	8d 5a       	subi	r24, 0xAD	; 173
     780:	9f 4f       	sbci	r25, 0xFF	; 255
     782:	9c 01       	movw	r18, r24
     784:	24 5b       	subi	r18, 0xB4	; 180
     786:	3f 4f       	sbci	r19, 0xFF	; 255
     788:	89 a9       	ldd	r24, Y+49	; 0x31
     78a:	9a a9       	ldd	r25, Y+50	; 0x32
     78c:	ab a9       	ldd	r26, Y+51	; 0x33
     78e:	bc a9       	ldd	r27, Y+52	; 0x34
     790:	f9 01       	movw	r30, r18
     792:	80 83       	st	Z, r24
     794:	91 83       	std	Z+1, r25	; 0x01
     796:	a2 83       	std	Z+2, r26	; 0x02
     798:	b3 83       	std	Z+3, r27	; 0x03
     79a:	ce 01       	movw	r24, r28
     79c:	8d 5a       	subi	r24, 0xAD	; 173
     79e:	9f 4f       	sbci	r25, 0xFF	; 255
     7a0:	80 5b       	subi	r24, 0xB0	; 176
     7a2:	9f 4f       	sbci	r25, 0xFF	; 255
     7a4:	fc 01       	movw	r30, r24
     7a6:	10 82       	st	Z, r1
     7a8:	11 82       	std	Z+1, r1	; 0x01
     7aa:	12 82       	std	Z+2, r1	; 0x02
     7ac:	13 82       	std	Z+3, r1	; 0x03
     7ae:	ce 01       	movw	r24, r28
     7b0:	8d 5a       	subi	r24, 0xAD	; 173
     7b2:	9f 4f       	sbci	r25, 0xFF	; 255
     7b4:	9c 01       	movw	r18, r24
     7b6:	2c 5a       	subi	r18, 0xAC	; 172
     7b8:	3f 4f       	sbci	r19, 0xFF	; 255
     7ba:	8d 89       	ldd	r24, Y+21	; 0x15
     7bc:	9e 89       	ldd	r25, Y+22	; 0x16
     7be:	af 89       	ldd	r26, Y+23	; 0x17
     7c0:	b8 8d       	ldd	r27, Y+24	; 0x18
     7c2:	f9 01       	movw	r30, r18
     7c4:	80 83       	st	Z, r24
     7c6:	91 83       	std	Z+1, r25	; 0x01
     7c8:	a2 83       	std	Z+2, r26	; 0x02
     7ca:	b3 83       	std	Z+3, r27	; 0x03
     7cc:	ce 01       	movw	r24, r28
     7ce:	8d 5a       	subi	r24, 0xAD	; 173
     7d0:	9f 4f       	sbci	r25, 0xFF	; 255
     7d2:	9c 01       	movw	r18, r24
     7d4:	28 5a       	subi	r18, 0xA8	; 168
     7d6:	3f 4f       	sbci	r19, 0xFF	; 255
     7d8:	89 a1       	ldd	r24, Y+33	; 0x21
     7da:	9a a1       	ldd	r25, Y+34	; 0x22
     7dc:	ab a1       	ldd	r26, Y+35	; 0x23
     7de:	bc a1       	ldd	r27, Y+36	; 0x24
     7e0:	f9 01       	movw	r30, r18
     7e2:	80 83       	st	Z, r24
     7e4:	91 83       	std	Z+1, r25	; 0x01
     7e6:	a2 83       	std	Z+2, r26	; 0x02
     7e8:	b3 83       	std	Z+3, r27	; 0x03
     7ea:	ce 01       	movw	r24, r28
     7ec:	8d 5a       	subi	r24, 0xAD	; 173
     7ee:	9f 4f       	sbci	r25, 0xFF	; 255
     7f0:	9c 01       	movw	r18, r24
     7f2:	24 5a       	subi	r18, 0xA4	; 164
     7f4:	3f 4f       	sbci	r19, 0xFF	; 255
     7f6:	89 a9       	ldd	r24, Y+49	; 0x31
     7f8:	9a a9       	ldd	r25, Y+50	; 0x32
     7fa:	ab a9       	ldd	r26, Y+51	; 0x33
     7fc:	bc a9       	ldd	r27, Y+52	; 0x34
     7fe:	f9 01       	movw	r30, r18
     800:	80 83       	st	Z, r24
     802:	91 83       	std	Z+1, r25	; 0x01
     804:	a2 83       	std	Z+2, r26	; 0x02
     806:	b3 83       	std	Z+3, r27	; 0x03
     808:	ce 01       	movw	r24, r28
     80a:	8d 5a       	subi	r24, 0xAD	; 173
     80c:	9f 4f       	sbci	r25, 0xFF	; 255
     80e:	9c 01       	movw	r18, r24
     810:	20 5a       	subi	r18, 0xA0	; 160
     812:	3f 4f       	sbci	r19, 0xFF	; 255
     814:	89 a5       	ldd	r24, Y+41	; 0x29
     816:	9a a5       	ldd	r25, Y+42	; 0x2a
     818:	ab a5       	ldd	r26, Y+43	; 0x2b
     81a:	bc a5       	ldd	r27, Y+44	; 0x2c
     81c:	f9 01       	movw	r30, r18
     81e:	80 83       	st	Z, r24
     820:	91 83       	std	Z+1, r25	; 0x01
     822:	a2 83       	std	Z+2, r26	; 0x02
     824:	b3 83       	std	Z+3, r27	; 0x03
     826:	ce 01       	movw	r24, r28
     828:	8d 5a       	subi	r24, 0xAD	; 173
     82a:	9f 4f       	sbci	r25, 0xFF	; 255
     82c:	9c 01       	movw	r18, r24
     82e:	2c 59       	subi	r18, 0x9C	; 156
     830:	3f 4f       	sbci	r19, 0xFF	; 255
     832:	89 a1       	ldd	r24, Y+33	; 0x21
     834:	9a a1       	ldd	r25, Y+34	; 0x22
     836:	ab a1       	ldd	r26, Y+35	; 0x23
     838:	bc a1       	ldd	r27, Y+36	; 0x24
     83a:	f9 01       	movw	r30, r18
     83c:	80 83       	st	Z, r24
     83e:	91 83       	std	Z+1, r25	; 0x01
     840:	a2 83       	std	Z+2, r26	; 0x02
     842:	b3 83       	std	Z+3, r27	; 0x03
     844:	ce 01       	movw	r24, r28
     846:	8d 5a       	subi	r24, 0xAD	; 173
     848:	9f 4f       	sbci	r25, 0xFF	; 255
     84a:	9c 01       	movw	r18, r24
     84c:	28 59       	subi	r18, 0x98	; 152
     84e:	3f 4f       	sbci	r19, 0xFF	; 255
     850:	8d 8d       	ldd	r24, Y+29	; 0x1d
     852:	9e 8d       	ldd	r25, Y+30	; 0x1e
     854:	af 8d       	ldd	r26, Y+31	; 0x1f
     856:	b8 a1       	ldd	r27, Y+32	; 0x20
     858:	f9 01       	movw	r30, r18
     85a:	80 83       	st	Z, r24
     85c:	91 83       	std	Z+1, r25	; 0x01
     85e:	a2 83       	std	Z+2, r26	; 0x02
     860:	b3 83       	std	Z+3, r27	; 0x03
     862:	ce 01       	movw	r24, r28
     864:	8d 5a       	subi	r24, 0xAD	; 173
     866:	9f 4f       	sbci	r25, 0xFF	; 255
     868:	84 59       	subi	r24, 0x94	; 148
     86a:	9f 4f       	sbci	r25, 0xFF	; 255
     86c:	fc 01       	movw	r30, r24
     86e:	10 82       	st	Z, r1
     870:	11 82       	std	Z+1, r1	; 0x01
     872:	12 82       	std	Z+2, r1	; 0x02
     874:	13 82       	std	Z+3, r1	; 0x03
     876:	ce 01       	movw	r24, r28
     878:	8d 5a       	subi	r24, 0xAD	; 173
     87a:	9f 4f       	sbci	r25, 0xFF	; 255
     87c:	9c 01       	movw	r18, r24
     87e:	20 59       	subi	r18, 0x90	; 144
     880:	3f 4f       	sbci	r19, 0xFF	; 255
     882:	8d 85       	ldd	r24, Y+13	; 0x0d
     884:	9e 85       	ldd	r25, Y+14	; 0x0e
     886:	af 85       	ldd	r26, Y+15	; 0x0f
     888:	b8 89       	ldd	r27, Y+16	; 0x10
     88a:	f9 01       	movw	r30, r18
     88c:	80 83       	st	Z, r24
     88e:	91 83       	std	Z+1, r25	; 0x01
     890:	a2 83       	std	Z+2, r26	; 0x02
     892:	b3 83       	std	Z+3, r27	; 0x03
     894:	ce 01       	movw	r24, r28
     896:	8d 5a       	subi	r24, 0xAD	; 173
     898:	9f 4f       	sbci	r25, 0xFF	; 255
     89a:	9c 01       	movw	r18, r24
     89c:	2c 58       	subi	r18, 0x8C	; 140
     89e:	3f 4f       	sbci	r19, 0xFF	; 255
     8a0:	8d 8d       	ldd	r24, Y+29	; 0x1d
     8a2:	9e 8d       	ldd	r25, Y+30	; 0x1e
     8a4:	af 8d       	ldd	r26, Y+31	; 0x1f
     8a6:	b8 a1       	ldd	r27, Y+32	; 0x20
     8a8:	f9 01       	movw	r30, r18
     8aa:	80 83       	st	Z, r24
     8ac:	91 83       	std	Z+1, r25	; 0x01
     8ae:	a2 83       	std	Z+2, r26	; 0x02
     8b0:	b3 83       	std	Z+3, r27	; 0x03
     8b2:	ce 01       	movw	r24, r28
     8b4:	8d 5a       	subi	r24, 0xAD	; 173
     8b6:	9f 4f       	sbci	r25, 0xFF	; 255
     8b8:	9c 01       	movw	r18, r24
     8ba:	28 58       	subi	r18, 0x88	; 136
     8bc:	3f 4f       	sbci	r19, 0xFF	; 255
     8be:	8d 89       	ldd	r24, Y+21	; 0x15
     8c0:	9e 89       	ldd	r25, Y+22	; 0x16
     8c2:	af 89       	ldd	r26, Y+23	; 0x17
     8c4:	b8 8d       	ldd	r27, Y+24	; 0x18
     8c6:	f9 01       	movw	r30, r18
     8c8:	80 83       	st	Z, r24
     8ca:	91 83       	std	Z+1, r25	; 0x01
     8cc:	a2 83       	std	Z+2, r26	; 0x02
     8ce:	b3 83       	std	Z+3, r27	; 0x03
     8d0:	ce 01       	movw	r24, r28
     8d2:	8d 5a       	subi	r24, 0xAD	; 173
     8d4:	9f 4f       	sbci	r25, 0xFF	; 255
     8d6:	9c 01       	movw	r18, r24
     8d8:	24 58       	subi	r18, 0x84	; 132
     8da:	3f 4f       	sbci	r19, 0xFF	; 255
     8dc:	8d 85       	ldd	r24, Y+13	; 0x0d
     8de:	9e 85       	ldd	r25, Y+14	; 0x0e
     8e0:	af 85       	ldd	r26, Y+15	; 0x0f
     8e2:	b8 89       	ldd	r27, Y+16	; 0x10
     8e4:	f9 01       	movw	r30, r18
     8e6:	80 83       	st	Z, r24
     8e8:	91 83       	std	Z+1, r25	; 0x01
     8ea:	a2 83       	std	Z+2, r26	; 0x02
     8ec:	b3 83       	std	Z+3, r27	; 0x03
     8ee:	ce 01       	movw	r24, r28
     8f0:	8d 5a       	subi	r24, 0xAD	; 173
     8f2:	9f 4f       	sbci	r25, 0xFF	; 255
     8f4:	9c 01       	movw	r18, r24
     8f6:	20 58       	subi	r18, 0x80	; 128
     8f8:	3f 4f       	sbci	r19, 0xFF	; 255
     8fa:	89 85       	ldd	r24, Y+9	; 0x09
     8fc:	9a 85       	ldd	r25, Y+10	; 0x0a
     8fe:	ab 85       	ldd	r26, Y+11	; 0x0b
     900:	bc 85       	ldd	r27, Y+12	; 0x0c
     902:	f9 01       	movw	r30, r18
     904:	80 83       	st	Z, r24
     906:	91 83       	std	Z+1, r25	; 0x01
     908:	a2 83       	std	Z+2, r26	; 0x02
     90a:	b3 83       	std	Z+3, r27	; 0x03
     90c:	ce 01       	movw	r24, r28
     90e:	8d 5a       	subi	r24, 0xAD	; 173
     910:	9f 4f       	sbci	r25, 0xFF	; 255
     912:	9c 01       	movw	r18, r24
     914:	2c 57       	subi	r18, 0x7C	; 124
     916:	3f 4f       	sbci	r19, 0xFF	; 255
     918:	89 85       	ldd	r24, Y+9	; 0x09
     91a:	9a 85       	ldd	r25, Y+10	; 0x0a
     91c:	ab 85       	ldd	r26, Y+11	; 0x0b
     91e:	bc 85       	ldd	r27, Y+12	; 0x0c
     920:	f9 01       	movw	r30, r18
     922:	80 83       	st	Z, r24
     924:	91 83       	std	Z+1, r25	; 0x01
     926:	a2 83       	std	Z+2, r26	; 0x02
     928:	b3 83       	std	Z+3, r27	; 0x03
     92a:	ce 01       	movw	r24, r28
     92c:	8d 5a       	subi	r24, 0xAD	; 173
     92e:	9f 4f       	sbci	r25, 0xFF	; 255
     930:	9c 01       	movw	r18, r24
     932:	28 57       	subi	r18, 0x78	; 120
     934:	3f 4f       	sbci	r19, 0xFF	; 255
     936:	8d 85       	ldd	r24, Y+13	; 0x0d
     938:	9e 85       	ldd	r25, Y+14	; 0x0e
     93a:	af 85       	ldd	r26, Y+15	; 0x0f
     93c:	b8 89       	ldd	r27, Y+16	; 0x10
     93e:	f9 01       	movw	r30, r18
     940:	80 83       	st	Z, r24
     942:	91 83       	std	Z+1, r25	; 0x01
     944:	a2 83       	std	Z+2, r26	; 0x02
     946:	b3 83       	std	Z+3, r27	; 0x03
     948:	ce 01       	movw	r24, r28
     94a:	8d 5a       	subi	r24, 0xAD	; 173
     94c:	9f 4f       	sbci	r25, 0xFF	; 255
     94e:	9c 01       	movw	r18, r24
     950:	24 57       	subi	r18, 0x74	; 116
     952:	3f 4f       	sbci	r19, 0xFF	; 255
     954:	8d 89       	ldd	r24, Y+21	; 0x15
     956:	9e 89       	ldd	r25, Y+22	; 0x16
     958:	af 89       	ldd	r26, Y+23	; 0x17
     95a:	b8 8d       	ldd	r27, Y+24	; 0x18
     95c:	f9 01       	movw	r30, r18
     95e:	80 83       	st	Z, r24
     960:	91 83       	std	Z+1, r25	; 0x01
     962:	a2 83       	std	Z+2, r26	; 0x02
     964:	b3 83       	std	Z+3, r27	; 0x03
     966:	ce 01       	movw	r24, r28
     968:	8d 5a       	subi	r24, 0xAD	; 173
     96a:	9f 4f       	sbci	r25, 0xFF	; 255
     96c:	9c 01       	movw	r18, r24
     96e:	20 57       	subi	r18, 0x70	; 112
     970:	3f 4f       	sbci	r19, 0xFF	; 255
     972:	8d 8d       	ldd	r24, Y+29	; 0x1d
     974:	9e 8d       	ldd	r25, Y+30	; 0x1e
     976:	af 8d       	ldd	r26, Y+31	; 0x1f
     978:	b8 a1       	ldd	r27, Y+32	; 0x20
     97a:	f9 01       	movw	r30, r18
     97c:	80 83       	st	Z, r24
     97e:	91 83       	std	Z+1, r25	; 0x01
     980:	a2 83       	std	Z+2, r26	; 0x02
     982:	b3 83       	std	Z+3, r27	; 0x03
     984:	ce 01       	movw	r24, r28
     986:	8d 5a       	subi	r24, 0xAD	; 173
     988:	9f 4f       	sbci	r25, 0xFF	; 255
     98a:	9c 01       	movw	r18, r24
     98c:	2c 56       	subi	r18, 0x6C	; 108
     98e:	3f 4f       	sbci	r19, 0xFF	; 255
     990:	8d 85       	ldd	r24, Y+13	; 0x0d
     992:	9e 85       	ldd	r25, Y+14	; 0x0e
     994:	af 85       	ldd	r26, Y+15	; 0x0f
     996:	b8 89       	ldd	r27, Y+16	; 0x10
     998:	f9 01       	movw	r30, r18
     99a:	80 83       	st	Z, r24
     99c:	91 83       	std	Z+1, r25	; 0x01
     99e:	a2 83       	std	Z+2, r26	; 0x02
     9a0:	b3 83       	std	Z+3, r27	; 0x03
     9a2:	ce 01       	movw	r24, r28
     9a4:	8d 5a       	subi	r24, 0xAD	; 173
     9a6:	9f 4f       	sbci	r25, 0xFF	; 255
     9a8:	9c 01       	movw	r18, r24
     9aa:	28 56       	subi	r18, 0x68	; 104
     9ac:	3f 4f       	sbci	r19, 0xFF	; 255
     9ae:	89 a9       	ldd	r24, Y+49	; 0x31
     9b0:	9a a9       	ldd	r25, Y+50	; 0x32
     9b2:	ab a9       	ldd	r26, Y+51	; 0x33
     9b4:	bc a9       	ldd	r27, Y+52	; 0x34
     9b6:	f9 01       	movw	r30, r18
     9b8:	80 83       	st	Z, r24
     9ba:	91 83       	std	Z+1, r25	; 0x01
     9bc:	a2 83       	std	Z+2, r26	; 0x02
     9be:	b3 83       	std	Z+3, r27	; 0x03
     9c0:	ce 01       	movw	r24, r28
     9c2:	8d 5a       	subi	r24, 0xAD	; 173
     9c4:	9f 4f       	sbci	r25, 0xFF	; 255
     9c6:	9c 01       	movw	r18, r24
     9c8:	24 56       	subi	r18, 0x64	; 100
     9ca:	3f 4f       	sbci	r19, 0xFF	; 255
     9cc:	89 a9       	ldd	r24, Y+49	; 0x31
     9ce:	9a a9       	ldd	r25, Y+50	; 0x32
     9d0:	ab a9       	ldd	r26, Y+51	; 0x33
     9d2:	bc a9       	ldd	r27, Y+52	; 0x34
     9d4:	f9 01       	movw	r30, r18
     9d6:	80 83       	st	Z, r24
     9d8:	91 83       	std	Z+1, r25	; 0x01
     9da:	a2 83       	std	Z+2, r26	; 0x02
     9dc:	b3 83       	std	Z+3, r27	; 0x03
     9de:	ce 01       	movw	r24, r28
     9e0:	8d 5a       	subi	r24, 0xAD	; 173
     9e2:	9f 4f       	sbci	r25, 0xFF	; 255
     9e4:	80 56       	subi	r24, 0x60	; 96
     9e6:	9f 4f       	sbci	r25, 0xFF	; 255
     9e8:	fc 01       	movw	r30, r24
     9ea:	10 82       	st	Z, r1
     9ec:	11 82       	std	Z+1, r1	; 0x01
     9ee:	12 82       	std	Z+2, r1	; 0x02
     9f0:	13 82       	std	Z+3, r1	; 0x03
     9f2:	ce 01       	movw	r24, r28
     9f4:	8d 5a       	subi	r24, 0xAD	; 173
     9f6:	9f 4f       	sbci	r25, 0xFF	; 255
     9f8:	9c 01       	movw	r18, r24
     9fa:	2c 55       	subi	r18, 0x5C	; 92
     9fc:	3f 4f       	sbci	r19, 0xFF	; 255
     9fe:	8d 8d       	ldd	r24, Y+29	; 0x1d
     a00:	9e 8d       	ldd	r25, Y+30	; 0x1e
     a02:	af 8d       	ldd	r26, Y+31	; 0x1f
     a04:	b8 a1       	ldd	r27, Y+32	; 0x20
     a06:	f9 01       	movw	r30, r18
     a08:	80 83       	st	Z, r24
     a0a:	91 83       	std	Z+1, r25	; 0x01
     a0c:	a2 83       	std	Z+2, r26	; 0x02
     a0e:	b3 83       	std	Z+3, r27	; 0x03
     a10:	ce 01       	movw	r24, r28
     a12:	8d 5a       	subi	r24, 0xAD	; 173
     a14:	9f 4f       	sbci	r25, 0xFF	; 255
     a16:	9c 01       	movw	r18, r24
     a18:	28 55       	subi	r18, 0x58	; 88
     a1a:	3f 4f       	sbci	r19, 0xFF	; 255
     a1c:	89 85       	ldd	r24, Y+9	; 0x09
     a1e:	9a 85       	ldd	r25, Y+10	; 0x0a
     a20:	ab 85       	ldd	r26, Y+11	; 0x0b
     a22:	bc 85       	ldd	r27, Y+12	; 0x0c
     a24:	f9 01       	movw	r30, r18
     a26:	80 83       	st	Z, r24
     a28:	91 83       	std	Z+1, r25	; 0x01
     a2a:	a2 83       	std	Z+2, r26	; 0x02
     a2c:	b3 83       	std	Z+3, r27	; 0x03
     a2e:	ce 01       	movw	r24, r28
     a30:	8d 5a       	subi	r24, 0xAD	; 173
     a32:	9f 4f       	sbci	r25, 0xFF	; 255
     a34:	9c 01       	movw	r18, r24
     a36:	24 55       	subi	r18, 0x54	; 84
     a38:	3f 4f       	sbci	r19, 0xFF	; 255
     a3a:	8d 85       	ldd	r24, Y+13	; 0x0d
     a3c:	9e 85       	ldd	r25, Y+14	; 0x0e
     a3e:	af 85       	ldd	r26, Y+15	; 0x0f
     a40:	b8 89       	ldd	r27, Y+16	; 0x10
     a42:	f9 01       	movw	r30, r18
     a44:	80 83       	st	Z, r24
     a46:	91 83       	std	Z+1, r25	; 0x01
     a48:	a2 83       	std	Z+2, r26	; 0x02
     a4a:	b3 83       	std	Z+3, r27	; 0x03
     a4c:	ce 01       	movw	r24, r28
     a4e:	8d 5a       	subi	r24, 0xAD	; 173
     a50:	9f 4f       	sbci	r25, 0xFF	; 255
     a52:	9c 01       	movw	r18, r24
     a54:	20 55       	subi	r18, 0x50	; 80
     a56:	3f 4f       	sbci	r19, 0xFF	; 255
     a58:	8d 89       	ldd	r24, Y+21	; 0x15
     a5a:	9e 89       	ldd	r25, Y+22	; 0x16
     a5c:	af 89       	ldd	r26, Y+23	; 0x17
     a5e:	b8 8d       	ldd	r27, Y+24	; 0x18
     a60:	f9 01       	movw	r30, r18
     a62:	80 83       	st	Z, r24
     a64:	91 83       	std	Z+1, r25	; 0x01
     a66:	a2 83       	std	Z+2, r26	; 0x02
     a68:	b3 83       	std	Z+3, r27	; 0x03
     a6a:	ce 01       	movw	r24, r28
     a6c:	8d 5a       	subi	r24, 0xAD	; 173
     a6e:	9f 4f       	sbci	r25, 0xFF	; 255
     a70:	9c 01       	movw	r18, r24
     a72:	2c 54       	subi	r18, 0x4C	; 76
     a74:	3f 4f       	sbci	r19, 0xFF	; 255
     a76:	8d 85       	ldd	r24, Y+13	; 0x0d
     a78:	9e 85       	ldd	r25, Y+14	; 0x0e
     a7a:	af 85       	ldd	r26, Y+15	; 0x0f
     a7c:	b8 89       	ldd	r27, Y+16	; 0x10
     a7e:	f9 01       	movw	r30, r18
     a80:	80 83       	st	Z, r24
     a82:	91 83       	std	Z+1, r25	; 0x01
     a84:	a2 83       	std	Z+2, r26	; 0x02
     a86:	b3 83       	std	Z+3, r27	; 0x03
     a88:	ce 01       	movw	r24, r28
     a8a:	8d 5a       	subi	r24, 0xAD	; 173
     a8c:	9f 4f       	sbci	r25, 0xFF	; 255
     a8e:	9c 01       	movw	r18, r24
     a90:	28 54       	subi	r18, 0x48	; 72
     a92:	3f 4f       	sbci	r19, 0xFF	; 255
     a94:	89 85       	ldd	r24, Y+9	; 0x09
     a96:	9a 85       	ldd	r25, Y+10	; 0x0a
     a98:	ab 85       	ldd	r26, Y+11	; 0x0b
     a9a:	bc 85       	ldd	r27, Y+12	; 0x0c
     a9c:	f9 01       	movw	r30, r18
     a9e:	80 83       	st	Z, r24
     aa0:	91 83       	std	Z+1, r25	; 0x01
     aa2:	a2 83       	std	Z+2, r26	; 0x02
     aa4:	b3 83       	std	Z+3, r27	; 0x03
     aa6:	ce 01       	movw	r24, r28
     aa8:	8d 5a       	subi	r24, 0xAD	; 173
     aaa:	9f 4f       	sbci	r25, 0xFF	; 255
     aac:	9c 01       	movw	r18, r24
     aae:	24 54       	subi	r18, 0x44	; 68
     ab0:	3f 4f       	sbci	r19, 0xFF	; 255
     ab2:	89 a9       	ldd	r24, Y+49	; 0x31
     ab4:	9a a9       	ldd	r25, Y+50	; 0x32
     ab6:	ab a9       	ldd	r26, Y+51	; 0x33
     ab8:	bc a9       	ldd	r27, Y+52	; 0x34
     aba:	f9 01       	movw	r30, r18
     abc:	80 83       	st	Z, r24
     abe:	91 83       	std	Z+1, r25	; 0x01
     ac0:	a2 83       	std	Z+2, r26	; 0x02
     ac2:	b3 83       	std	Z+3, r27	; 0x03
     ac4:	ce 01       	movw	r24, r28
     ac6:	8d 5a       	subi	r24, 0xAD	; 173
     ac8:	9f 4f       	sbci	r25, 0xFF	; 255
     aca:	9c 01       	movw	r18, r24
     acc:	20 54       	subi	r18, 0x40	; 64
     ace:	3f 4f       	sbci	r19, 0xFF	; 255
     ad0:	89 a9       	ldd	r24, Y+49	; 0x31
     ad2:	9a a9       	ldd	r25, Y+50	; 0x32
     ad4:	ab a9       	ldd	r26, Y+51	; 0x33
     ad6:	bc a9       	ldd	r27, Y+52	; 0x34
     ad8:	f9 01       	movw	r30, r18
     ada:	80 83       	st	Z, r24
     adc:	91 83       	std	Z+1, r25	; 0x01
     ade:	a2 83       	std	Z+2, r26	; 0x02
     ae0:	b3 83       	std	Z+3, r27	; 0x03
     ae2:	ce 01       	movw	r24, r28
     ae4:	8d 5a       	subi	r24, 0xAD	; 173
     ae6:	9f 4f       	sbci	r25, 0xFF	; 255
     ae8:	9c 01       	movw	r18, r24
     aea:	2c 53       	subi	r18, 0x3C	; 60
     aec:	3f 4f       	sbci	r19, 0xFF	; 255
     aee:	8d 85       	ldd	r24, Y+13	; 0x0d
     af0:	9e 85       	ldd	r25, Y+14	; 0x0e
     af2:	af 85       	ldd	r26, Y+15	; 0x0f
     af4:	b8 89       	ldd	r27, Y+16	; 0x10
     af6:	f9 01       	movw	r30, r18
     af8:	80 83       	st	Z, r24
     afa:	91 83       	std	Z+1, r25	; 0x01
     afc:	a2 83       	std	Z+2, r26	; 0x02
     afe:	b3 83       	std	Z+3, r27	; 0x03
     b00:	ce 01       	movw	r24, r28
     b02:	8d 5a       	subi	r24, 0xAD	; 173
     b04:	9f 4f       	sbci	r25, 0xFF	; 255
     b06:	9c 01       	movw	r18, r24
     b08:	28 53       	subi	r18, 0x38	; 56
     b0a:	3f 4f       	sbci	r19, 0xFF	; 255
     b0c:	8d 8d       	ldd	r24, Y+29	; 0x1d
     b0e:	9e 8d       	ldd	r25, Y+30	; 0x1e
     b10:	af 8d       	ldd	r26, Y+31	; 0x1f
     b12:	b8 a1       	ldd	r27, Y+32	; 0x20
     b14:	f9 01       	movw	r30, r18
     b16:	80 83       	st	Z, r24
     b18:	91 83       	std	Z+1, r25	; 0x01
     b1a:	a2 83       	std	Z+2, r26	; 0x02
     b1c:	b3 83       	std	Z+3, r27	; 0x03
     b1e:	ce 01       	movw	r24, r28
     b20:	8d 5a       	subi	r24, 0xAD	; 173
     b22:	9f 4f       	sbci	r25, 0xFF	; 255
     b24:	9c 01       	movw	r18, r24
     b26:	24 53       	subi	r18, 0x34	; 52
     b28:	3f 4f       	sbci	r19, 0xFF	; 255
     b2a:	8d 89       	ldd	r24, Y+21	; 0x15
     b2c:	9e 89       	ldd	r25, Y+22	; 0x16
     b2e:	af 89       	ldd	r26, Y+23	; 0x17
     b30:	b8 8d       	ldd	r27, Y+24	; 0x18
     b32:	f9 01       	movw	r30, r18
     b34:	80 83       	st	Z, r24
     b36:	91 83       	std	Z+1, r25	; 0x01
     b38:	a2 83       	std	Z+2, r26	; 0x02
     b3a:	b3 83       	std	Z+3, r27	; 0x03
     b3c:	ce 01       	movw	r24, r28
     b3e:	8d 5a       	subi	r24, 0xAD	; 173
     b40:	9f 4f       	sbci	r25, 0xFF	; 255
     b42:	9c 01       	movw	r18, r24
     b44:	20 53       	subi	r18, 0x30	; 48
     b46:	3f 4f       	sbci	r19, 0xFF	; 255
     b48:	8d 85       	ldd	r24, Y+13	; 0x0d
     b4a:	9e 85       	ldd	r25, Y+14	; 0x0e
     b4c:	af 85       	ldd	r26, Y+15	; 0x0f
     b4e:	b8 89       	ldd	r27, Y+16	; 0x10
     b50:	f9 01       	movw	r30, r18
     b52:	80 83       	st	Z, r24
     b54:	91 83       	std	Z+1, r25	; 0x01
     b56:	a2 83       	std	Z+2, r26	; 0x02
     b58:	b3 83       	std	Z+3, r27	; 0x03
     b5a:	ce 01       	movw	r24, r28
     b5c:	8d 5a       	subi	r24, 0xAD	; 173
     b5e:	9f 4f       	sbci	r25, 0xFF	; 255
     b60:	9c 01       	movw	r18, r24
     b62:	2c 52       	subi	r18, 0x2C	; 44
     b64:	3f 4f       	sbci	r19, 0xFF	; 255
     b66:	89 85       	ldd	r24, Y+9	; 0x09
     b68:	9a 85       	ldd	r25, Y+10	; 0x0a
     b6a:	ab 85       	ldd	r26, Y+11	; 0x0b
     b6c:	bc 85       	ldd	r27, Y+12	; 0x0c
     b6e:	f9 01       	movw	r30, r18
     b70:	80 83       	st	Z, r24
     b72:	91 83       	std	Z+1, r25	; 0x01
     b74:	a2 83       	std	Z+2, r26	; 0x02
     b76:	b3 83       	std	Z+3, r27	; 0x03
     b78:	ce 01       	movw	r24, r28
     b7a:	8d 5a       	subi	r24, 0xAD	; 173
     b7c:	9f 4f       	sbci	r25, 0xFF	; 255
     b7e:	9c 01       	movw	r18, r24
     b80:	28 52       	subi	r18, 0x28	; 40
     b82:	3f 4f       	sbci	r19, 0xFF	; 255
     b84:	89 85       	ldd	r24, Y+9	; 0x09
     b86:	9a 85       	ldd	r25, Y+10	; 0x0a
     b88:	ab 85       	ldd	r26, Y+11	; 0x0b
     b8a:	bc 85       	ldd	r27, Y+12	; 0x0c
     b8c:	f9 01       	movw	r30, r18
     b8e:	80 83       	st	Z, r24
     b90:	91 83       	std	Z+1, r25	; 0x01
     b92:	a2 83       	std	Z+2, r26	; 0x02
     b94:	b3 83       	std	Z+3, r27	; 0x03
     b96:	ce 01       	movw	r24, r28
     b98:	8d 5a       	subi	r24, 0xAD	; 173
     b9a:	9f 4f       	sbci	r25, 0xFF	; 255
     b9c:	9c 01       	movw	r18, r24
     b9e:	24 52       	subi	r18, 0x24	; 36
     ba0:	3f 4f       	sbci	r19, 0xFF	; 255
     ba2:	8d 85       	ldd	r24, Y+13	; 0x0d
     ba4:	9e 85       	ldd	r25, Y+14	; 0x0e
     ba6:	af 85       	ldd	r26, Y+15	; 0x0f
     ba8:	b8 89       	ldd	r27, Y+16	; 0x10
     baa:	f9 01       	movw	r30, r18
     bac:	80 83       	st	Z, r24
     bae:	91 83       	std	Z+1, r25	; 0x01
     bb0:	a2 83       	std	Z+2, r26	; 0x02
     bb2:	b3 83       	std	Z+3, r27	; 0x03
     bb4:	ce 01       	movw	r24, r28
     bb6:	8d 5a       	subi	r24, 0xAD	; 173
     bb8:	9f 4f       	sbci	r25, 0xFF	; 255
     bba:	9c 01       	movw	r18, r24
     bbc:	20 52       	subi	r18, 0x20	; 32
     bbe:	3f 4f       	sbci	r19, 0xFF	; 255
     bc0:	8d 89       	ldd	r24, Y+21	; 0x15
     bc2:	9e 89       	ldd	r25, Y+22	; 0x16
     bc4:	af 89       	ldd	r26, Y+23	; 0x17
     bc6:	b8 8d       	ldd	r27, Y+24	; 0x18
     bc8:	f9 01       	movw	r30, r18
     bca:	80 83       	st	Z, r24
     bcc:	91 83       	std	Z+1, r25	; 0x01
     bce:	a2 83       	std	Z+2, r26	; 0x02
     bd0:	b3 83       	std	Z+3, r27	; 0x03
     bd2:	ce 01       	movw	r24, r28
     bd4:	8d 5a       	subi	r24, 0xAD	; 173
     bd6:	9f 4f       	sbci	r25, 0xFF	; 255
     bd8:	9c 01       	movw	r18, r24
     bda:	2c 51       	subi	r18, 0x1C	; 28
     bdc:	3f 4f       	sbci	r19, 0xFF	; 255
     bde:	8d 8d       	ldd	r24, Y+29	; 0x1d
     be0:	9e 8d       	ldd	r25, Y+30	; 0x1e
     be2:	af 8d       	ldd	r26, Y+31	; 0x1f
     be4:	b8 a1       	ldd	r27, Y+32	; 0x20
     be6:	f9 01       	movw	r30, r18
     be8:	80 83       	st	Z, r24
     bea:	91 83       	std	Z+1, r25	; 0x01
     bec:	a2 83       	std	Z+2, r26	; 0x02
     bee:	b3 83       	std	Z+3, r27	; 0x03
     bf0:	ce 01       	movw	r24, r28
     bf2:	8d 5a       	subi	r24, 0xAD	; 173
     bf4:	9f 4f       	sbci	r25, 0xFF	; 255
     bf6:	9c 01       	movw	r18, r24
     bf8:	28 51       	subi	r18, 0x18	; 24
     bfa:	3f 4f       	sbci	r19, 0xFF	; 255
     bfc:	8d 85       	ldd	r24, Y+13	; 0x0d
     bfe:	9e 85       	ldd	r25, Y+14	; 0x0e
     c00:	af 85       	ldd	r26, Y+15	; 0x0f
     c02:	b8 89       	ldd	r27, Y+16	; 0x10
     c04:	f9 01       	movw	r30, r18
     c06:	80 83       	st	Z, r24
     c08:	91 83       	std	Z+1, r25	; 0x01
     c0a:	a2 83       	std	Z+2, r26	; 0x02
     c0c:	b3 83       	std	Z+3, r27	; 0x03
     c0e:	ce 01       	movw	r24, r28
     c10:	8d 5a       	subi	r24, 0xAD	; 173
     c12:	9f 4f       	sbci	r25, 0xFF	; 255
     c14:	9c 01       	movw	r18, r24
     c16:	24 51       	subi	r18, 0x14	; 20
     c18:	3f 4f       	sbci	r19, 0xFF	; 255
     c1a:	89 a9       	ldd	r24, Y+49	; 0x31
     c1c:	9a a9       	ldd	r25, Y+50	; 0x32
     c1e:	ab a9       	ldd	r26, Y+51	; 0x33
     c20:	bc a9       	ldd	r27, Y+52	; 0x34
     c22:	f9 01       	movw	r30, r18
     c24:	80 83       	st	Z, r24
     c26:	91 83       	std	Z+1, r25	; 0x01
     c28:	a2 83       	std	Z+2, r26	; 0x02
     c2a:	b3 83       	std	Z+3, r27	; 0x03
     c2c:	ce 01       	movw	r24, r28
     c2e:	8d 5a       	subi	r24, 0xAD	; 173
     c30:	9f 4f       	sbci	r25, 0xFF	; 255
     c32:	9c 01       	movw	r18, r24
     c34:	20 51       	subi	r18, 0x10	; 16
     c36:	3f 4f       	sbci	r19, 0xFF	; 255
     c38:	89 a9       	ldd	r24, Y+49	; 0x31
     c3a:	9a a9       	ldd	r25, Y+50	; 0x32
     c3c:	ab a9       	ldd	r26, Y+51	; 0x33
     c3e:	bc a9       	ldd	r27, Y+52	; 0x34
     c40:	f9 01       	movw	r30, r18
     c42:	80 83       	st	Z, r24
     c44:	91 83       	std	Z+1, r25	; 0x01
     c46:	a2 83       	std	Z+2, r26	; 0x02
     c48:	b3 83       	std	Z+3, r27	; 0x03
     c4a:	ce 01       	movw	r24, r28
     c4c:	8d 5a       	subi	r24, 0xAD	; 173
     c4e:	9f 4f       	sbci	r25, 0xFF	; 255
     c50:	8c 50       	subi	r24, 0x0C	; 12
     c52:	9f 4f       	sbci	r25, 0xFF	; 255
     c54:	fc 01       	movw	r30, r24
     c56:	10 82       	st	Z, r1
     c58:	11 82       	std	Z+1, r1	; 0x01
     c5a:	12 82       	std	Z+2, r1	; 0x02
     c5c:	13 82       	std	Z+3, r1	; 0x03
     c5e:	ce 01       	movw	r24, r28
     c60:	8d 5a       	subi	r24, 0xAD	; 173
     c62:	9f 4f       	sbci	r25, 0xFF	; 255
     c64:	9c 01       	movw	r18, r24
     c66:	28 50       	subi	r18, 0x08	; 8
     c68:	3f 4f       	sbci	r19, 0xFF	; 255
     c6a:	8d 89       	ldd	r24, Y+21	; 0x15
     c6c:	9e 89       	ldd	r25, Y+22	; 0x16
     c6e:	af 89       	ldd	r26, Y+23	; 0x17
     c70:	b8 8d       	ldd	r27, Y+24	; 0x18
     c72:	f9 01       	movw	r30, r18
     c74:	80 83       	st	Z, r24
     c76:	91 83       	std	Z+1, r25	; 0x01
     c78:	a2 83       	std	Z+2, r26	; 0x02
     c7a:	b3 83       	std	Z+3, r27	; 0x03
     c7c:	ce 01       	movw	r24, r28
     c7e:	8d 5a       	subi	r24, 0xAD	; 173
     c80:	9f 4f       	sbci	r25, 0xFF	; 255
     c82:	9c 01       	movw	r18, r24
     c84:	24 50       	subi	r18, 0x04	; 4
     c86:	3f 4f       	sbci	r19, 0xFF	; 255
     c88:	89 a1       	ldd	r24, Y+33	; 0x21
     c8a:	9a a1       	ldd	r25, Y+34	; 0x22
     c8c:	ab a1       	ldd	r26, Y+35	; 0x23
     c8e:	bc a1       	ldd	r27, Y+36	; 0x24
     c90:	f9 01       	movw	r30, r18
     c92:	80 83       	st	Z, r24
     c94:	91 83       	std	Z+1, r25	; 0x01
     c96:	a2 83       	std	Z+2, r26	; 0x02
     c98:	b3 83       	std	Z+3, r27	; 0x03
     c9a:	ce 01       	movw	r24, r28
     c9c:	8d 5a       	subi	r24, 0xAD	; 173
     c9e:	9f 4f       	sbci	r25, 0xFF	; 255
     ca0:	9c 01       	movw	r18, r24
     ca2:	33 95       	inc	r19
     ca4:	89 a9       	ldd	r24, Y+49	; 0x31
     ca6:	9a a9       	ldd	r25, Y+50	; 0x32
     ca8:	ab a9       	ldd	r26, Y+51	; 0x33
     caa:	bc a9       	ldd	r27, Y+52	; 0x34
     cac:	f9 01       	movw	r30, r18
     cae:	80 83       	st	Z, r24
     cb0:	91 83       	std	Z+1, r25	; 0x01
     cb2:	a2 83       	std	Z+2, r26	; 0x02
     cb4:	b3 83       	std	Z+3, r27	; 0x03
     cb6:	ce 01       	movw	r24, r28
     cb8:	8d 5a       	subi	r24, 0xAD	; 173
     cba:	9f 4f       	sbci	r25, 0xFF	; 255
     cbc:	9c 01       	movw	r18, r24
     cbe:	2c 5f       	subi	r18, 0xFC	; 252
     cc0:	3e 4f       	sbci	r19, 0xFE	; 254
     cc2:	89 a5       	ldd	r24, Y+41	; 0x29
     cc4:	9a a5       	ldd	r25, Y+42	; 0x2a
     cc6:	ab a5       	ldd	r26, Y+43	; 0x2b
     cc8:	bc a5       	ldd	r27, Y+44	; 0x2c
     cca:	f9 01       	movw	r30, r18
     ccc:	80 83       	st	Z, r24
     cce:	91 83       	std	Z+1, r25	; 0x01
     cd0:	a2 83       	std	Z+2, r26	; 0x02
     cd2:	b3 83       	std	Z+3, r27	; 0x03
     cd4:	ce 01       	movw	r24, r28
     cd6:	8d 5a       	subi	r24, 0xAD	; 173
     cd8:	9f 4f       	sbci	r25, 0xFF	; 255
     cda:	9c 01       	movw	r18, r24
     cdc:	28 5f       	subi	r18, 0xF8	; 248
     cde:	3e 4f       	sbci	r19, 0xFE	; 254
     ce0:	89 a1       	ldd	r24, Y+33	; 0x21
     ce2:	9a a1       	ldd	r25, Y+34	; 0x22
     ce4:	ab a1       	ldd	r26, Y+35	; 0x23
     ce6:	bc a1       	ldd	r27, Y+36	; 0x24
     ce8:	f9 01       	movw	r30, r18
     cea:	80 83       	st	Z, r24
     cec:	91 83       	std	Z+1, r25	; 0x01
     cee:	a2 83       	std	Z+2, r26	; 0x02
     cf0:	b3 83       	std	Z+3, r27	; 0x03
     cf2:	ce 01       	movw	r24, r28
     cf4:	8d 5a       	subi	r24, 0xAD	; 173
     cf6:	9f 4f       	sbci	r25, 0xFF	; 255
     cf8:	9c 01       	movw	r18, r24
     cfa:	24 5f       	subi	r18, 0xF4	; 244
     cfc:	3e 4f       	sbci	r19, 0xFE	; 254
     cfe:	8d 8d       	ldd	r24, Y+29	; 0x1d
     d00:	9e 8d       	ldd	r25, Y+30	; 0x1e
     d02:	af 8d       	ldd	r26, Y+31	; 0x1f
     d04:	b8 a1       	ldd	r27, Y+32	; 0x20
     d06:	f9 01       	movw	r30, r18
     d08:	80 83       	st	Z, r24
     d0a:	91 83       	std	Z+1, r25	; 0x01
     d0c:	a2 83       	std	Z+2, r26	; 0x02
     d0e:	b3 83       	std	Z+3, r27	; 0x03
     d10:	ce 01       	movw	r24, r28
     d12:	8d 5a       	subi	r24, 0xAD	; 173
     d14:	9f 4f       	sbci	r25, 0xFF	; 255
     d16:	80 5f       	subi	r24, 0xF0	; 240
     d18:	9e 4f       	sbci	r25, 0xFE	; 254
     d1a:	fc 01       	movw	r30, r24
     d1c:	10 82       	st	Z, r1
     d1e:	11 82       	std	Z+1, r1	; 0x01
     d20:	12 82       	std	Z+2, r1	; 0x02
     d22:	13 82       	std	Z+3, r1	; 0x03
     d24:	ce 01       	movw	r24, r28
     d26:	8d 5a       	subi	r24, 0xAD	; 173
     d28:	9f 4f       	sbci	r25, 0xFF	; 255
     d2a:	9c 01       	movw	r18, r24
     d2c:	2c 5e       	subi	r18, 0xEC	; 236
     d2e:	3e 4f       	sbci	r19, 0xFE	; 254
     d30:	8d 85       	ldd	r24, Y+13	; 0x0d
     d32:	9e 85       	ldd	r25, Y+14	; 0x0e
     d34:	af 85       	ldd	r26, Y+15	; 0x0f
     d36:	b8 89       	ldd	r27, Y+16	; 0x10
     d38:	f9 01       	movw	r30, r18
     d3a:	80 83       	st	Z, r24
     d3c:	91 83       	std	Z+1, r25	; 0x01
     d3e:	a2 83       	std	Z+2, r26	; 0x02
     d40:	b3 83       	std	Z+3, r27	; 0x03
     d42:	ce 01       	movw	r24, r28
     d44:	8d 5a       	subi	r24, 0xAD	; 173
     d46:	9f 4f       	sbci	r25, 0xFF	; 255
     d48:	9c 01       	movw	r18, r24
     d4a:	28 5e       	subi	r18, 0xE8	; 232
     d4c:	3e 4f       	sbci	r19, 0xFE	; 254
     d4e:	8d 8d       	ldd	r24, Y+29	; 0x1d
     d50:	9e 8d       	ldd	r25, Y+30	; 0x1e
     d52:	af 8d       	ldd	r26, Y+31	; 0x1f
     d54:	b8 a1       	ldd	r27, Y+32	; 0x20
     d56:	f9 01       	movw	r30, r18
     d58:	80 83       	st	Z, r24
     d5a:	91 83       	std	Z+1, r25	; 0x01
     d5c:	a2 83       	std	Z+2, r26	; 0x02
     d5e:	b3 83       	std	Z+3, r27	; 0x03
     d60:	ce 01       	movw	r24, r28
     d62:	8d 5a       	subi	r24, 0xAD	; 173
     d64:	9f 4f       	sbci	r25, 0xFF	; 255
     d66:	9c 01       	movw	r18, r24
     d68:	24 5e       	subi	r18, 0xE4	; 228
     d6a:	3e 4f       	sbci	r19, 0xFE	; 254
     d6c:	8d 89       	ldd	r24, Y+21	; 0x15
     d6e:	9e 89       	ldd	r25, Y+22	; 0x16
     d70:	af 89       	ldd	r26, Y+23	; 0x17
     d72:	b8 8d       	ldd	r27, Y+24	; 0x18
     d74:	f9 01       	movw	r30, r18
     d76:	80 83       	st	Z, r24
     d78:	91 83       	std	Z+1, r25	; 0x01
     d7a:	a2 83       	std	Z+2, r26	; 0x02
     d7c:	b3 83       	std	Z+3, r27	; 0x03
     d7e:	ce 01       	movw	r24, r28
     d80:	8d 5a       	subi	r24, 0xAD	; 173
     d82:	9f 4f       	sbci	r25, 0xFF	; 255
     d84:	9c 01       	movw	r18, r24
     d86:	20 5e       	subi	r18, 0xE0	; 224
     d88:	3e 4f       	sbci	r19, 0xFE	; 254
     d8a:	8d 85       	ldd	r24, Y+13	; 0x0d
     d8c:	9e 85       	ldd	r25, Y+14	; 0x0e
     d8e:	af 85       	ldd	r26, Y+15	; 0x0f
     d90:	b8 89       	ldd	r27, Y+16	; 0x10
     d92:	f9 01       	movw	r30, r18
     d94:	80 83       	st	Z, r24
     d96:	91 83       	std	Z+1, r25	; 0x01
     d98:	a2 83       	std	Z+2, r26	; 0x02
     d9a:	b3 83       	std	Z+3, r27	; 0x03
     d9c:	ce 01       	movw	r24, r28
     d9e:	8d 5a       	subi	r24, 0xAD	; 173
     da0:	9f 4f       	sbci	r25, 0xFF	; 255
     da2:	9c 01       	movw	r18, r24
     da4:	2c 5d       	subi	r18, 0xDC	; 220
     da6:	3e 4f       	sbci	r19, 0xFE	; 254
     da8:	89 85       	ldd	r24, Y+9	; 0x09
     daa:	9a 85       	ldd	r25, Y+10	; 0x0a
     dac:	ab 85       	ldd	r26, Y+11	; 0x0b
     dae:	bc 85       	ldd	r27, Y+12	; 0x0c
     db0:	f9 01       	movw	r30, r18
     db2:	80 83       	st	Z, r24
     db4:	91 83       	std	Z+1, r25	; 0x01
     db6:	a2 83       	std	Z+2, r26	; 0x02
     db8:	b3 83       	std	Z+3, r27	; 0x03
     dba:	ce 01       	movw	r24, r28
     dbc:	8d 5a       	subi	r24, 0xAD	; 173
     dbe:	9f 4f       	sbci	r25, 0xFF	; 255
     dc0:	9c 01       	movw	r18, r24
     dc2:	28 5d       	subi	r18, 0xD8	; 216
     dc4:	3e 4f       	sbci	r19, 0xFE	; 254
     dc6:	89 85       	ldd	r24, Y+9	; 0x09
     dc8:	9a 85       	ldd	r25, Y+10	; 0x0a
     dca:	ab 85       	ldd	r26, Y+11	; 0x0b
     dcc:	bc 85       	ldd	r27, Y+12	; 0x0c
     dce:	f9 01       	movw	r30, r18
     dd0:	80 83       	st	Z, r24
     dd2:	91 83       	std	Z+1, r25	; 0x01
     dd4:	a2 83       	std	Z+2, r26	; 0x02
     dd6:	b3 83       	std	Z+3, r27	; 0x03
     dd8:	ce 01       	movw	r24, r28
     dda:	8d 5a       	subi	r24, 0xAD	; 173
     ddc:	9f 4f       	sbci	r25, 0xFF	; 255
     dde:	9c 01       	movw	r18, r24
     de0:	24 5d       	subi	r18, 0xD4	; 212
     de2:	3e 4f       	sbci	r19, 0xFE	; 254
     de4:	8d 85       	ldd	r24, Y+13	; 0x0d
     de6:	9e 85       	ldd	r25, Y+14	; 0x0e
     de8:	af 85       	ldd	r26, Y+15	; 0x0f
     dea:	b8 89       	ldd	r27, Y+16	; 0x10
     dec:	f9 01       	movw	r30, r18
     dee:	80 83       	st	Z, r24
     df0:	91 83       	std	Z+1, r25	; 0x01
     df2:	a2 83       	std	Z+2, r26	; 0x02
     df4:	b3 83       	std	Z+3, r27	; 0x03
     df6:	ce 01       	movw	r24, r28
     df8:	8d 5a       	subi	r24, 0xAD	; 173
     dfa:	9f 4f       	sbci	r25, 0xFF	; 255
     dfc:	9c 01       	movw	r18, r24
     dfe:	20 5d       	subi	r18, 0xD0	; 208
     e00:	3e 4f       	sbci	r19, 0xFE	; 254
     e02:	8d 89       	ldd	r24, Y+21	; 0x15
     e04:	9e 89       	ldd	r25, Y+22	; 0x16
     e06:	af 89       	ldd	r26, Y+23	; 0x17
     e08:	b8 8d       	ldd	r27, Y+24	; 0x18
     e0a:	f9 01       	movw	r30, r18
     e0c:	80 83       	st	Z, r24
     e0e:	91 83       	std	Z+1, r25	; 0x01
     e10:	a2 83       	std	Z+2, r26	; 0x02
     e12:	b3 83       	std	Z+3, r27	; 0x03
     e14:	ce 01       	movw	r24, r28
     e16:	8d 5a       	subi	r24, 0xAD	; 173
     e18:	9f 4f       	sbci	r25, 0xFF	; 255
     e1a:	9c 01       	movw	r18, r24
     e1c:	2c 5c       	subi	r18, 0xCC	; 204
     e1e:	3e 4f       	sbci	r19, 0xFE	; 254
     e20:	8d 8d       	ldd	r24, Y+29	; 0x1d
     e22:	9e 8d       	ldd	r25, Y+30	; 0x1e
     e24:	af 8d       	ldd	r26, Y+31	; 0x1f
     e26:	b8 a1       	ldd	r27, Y+32	; 0x20
     e28:	f9 01       	movw	r30, r18
     e2a:	80 83       	st	Z, r24
     e2c:	91 83       	std	Z+1, r25	; 0x01
     e2e:	a2 83       	std	Z+2, r26	; 0x02
     e30:	b3 83       	std	Z+3, r27	; 0x03
     e32:	ce 01       	movw	r24, r28
     e34:	8d 5a       	subi	r24, 0xAD	; 173
     e36:	9f 4f       	sbci	r25, 0xFF	; 255
     e38:	9c 01       	movw	r18, r24
     e3a:	28 5c       	subi	r18, 0xC8	; 200
     e3c:	3e 4f       	sbci	r19, 0xFE	; 254
     e3e:	8d 85       	ldd	r24, Y+13	; 0x0d
     e40:	9e 85       	ldd	r25, Y+14	; 0x0e
     e42:	af 85       	ldd	r26, Y+15	; 0x0f
     e44:	b8 89       	ldd	r27, Y+16	; 0x10
     e46:	f9 01       	movw	r30, r18
     e48:	80 83       	st	Z, r24
     e4a:	91 83       	std	Z+1, r25	; 0x01
     e4c:	a2 83       	std	Z+2, r26	; 0x02
     e4e:	b3 83       	std	Z+3, r27	; 0x03
     e50:	ce 01       	movw	r24, r28
     e52:	8d 5a       	subi	r24, 0xAD	; 173
     e54:	9f 4f       	sbci	r25, 0xFF	; 255
     e56:	9c 01       	movw	r18, r24
     e58:	24 5c       	subi	r18, 0xC4	; 196
     e5a:	3e 4f       	sbci	r19, 0xFE	; 254
     e5c:	89 a9       	ldd	r24, Y+49	; 0x31
     e5e:	9a a9       	ldd	r25, Y+50	; 0x32
     e60:	ab a9       	ldd	r26, Y+51	; 0x33
     e62:	bc a9       	ldd	r27, Y+52	; 0x34
     e64:	f9 01       	movw	r30, r18
     e66:	80 83       	st	Z, r24
     e68:	91 83       	std	Z+1, r25	; 0x01
     e6a:	a2 83       	std	Z+2, r26	; 0x02
     e6c:	b3 83       	std	Z+3, r27	; 0x03
     e6e:	ce 01       	movw	r24, r28
     e70:	8d 5a       	subi	r24, 0xAD	; 173
     e72:	9f 4f       	sbci	r25, 0xFF	; 255
     e74:	9c 01       	movw	r18, r24
     e76:	20 5c       	subi	r18, 0xC0	; 192
     e78:	3e 4f       	sbci	r19, 0xFE	; 254
     e7a:	89 a9       	ldd	r24, Y+49	; 0x31
     e7c:	9a a9       	ldd	r25, Y+50	; 0x32
     e7e:	ab a9       	ldd	r26, Y+51	; 0x33
     e80:	bc a9       	ldd	r27, Y+52	; 0x34
     e82:	f9 01       	movw	r30, r18
     e84:	80 83       	st	Z, r24
     e86:	91 83       	std	Z+1, r25	; 0x01
     e88:	a2 83       	std	Z+2, r26	; 0x02
     e8a:	b3 83       	std	Z+3, r27	; 0x03
     e8c:	ce 01       	movw	r24, r28
     e8e:	8d 5a       	subi	r24, 0xAD	; 173
     e90:	9f 4f       	sbci	r25, 0xFF	; 255
     e92:	8c 5b       	subi	r24, 0xBC	; 188
     e94:	9e 4f       	sbci	r25, 0xFE	; 254
     e96:	fc 01       	movw	r30, r24
     e98:	10 82       	st	Z, r1
     e9a:	11 82       	std	Z+1, r1	; 0x01
     e9c:	12 82       	std	Z+2, r1	; 0x02
     e9e:	13 82       	std	Z+3, r1	; 0x03
     ea0:	ce 01       	movw	r24, r28
     ea2:	8d 5a       	subi	r24, 0xAD	; 173
     ea4:	9f 4f       	sbci	r25, 0xFF	; 255
     ea6:	9c 01       	movw	r18, r24
     ea8:	28 5b       	subi	r18, 0xB8	; 184
     eaa:	3e 4f       	sbci	r19, 0xFE	; 254
     eac:	8d 8d       	ldd	r24, Y+29	; 0x1d
     eae:	9e 8d       	ldd	r25, Y+30	; 0x1e
     eb0:	af 8d       	ldd	r26, Y+31	; 0x1f
     eb2:	b8 a1       	ldd	r27, Y+32	; 0x20
     eb4:	f9 01       	movw	r30, r18
     eb6:	80 83       	st	Z, r24
     eb8:	91 83       	std	Z+1, r25	; 0x01
     eba:	a2 83       	std	Z+2, r26	; 0x02
     ebc:	b3 83       	std	Z+3, r27	; 0x03
     ebe:	ce 01       	movw	r24, r28
     ec0:	8d 5a       	subi	r24, 0xAD	; 173
     ec2:	9f 4f       	sbci	r25, 0xFF	; 255
     ec4:	9c 01       	movw	r18, r24
     ec6:	24 5b       	subi	r18, 0xB4	; 180
     ec8:	3e 4f       	sbci	r19, 0xFE	; 254
     eca:	8d 85       	ldd	r24, Y+13	; 0x0d
     ecc:	9e 85       	ldd	r25, Y+14	; 0x0e
     ece:	af 85       	ldd	r26, Y+15	; 0x0f
     ed0:	b8 89       	ldd	r27, Y+16	; 0x10
     ed2:	f9 01       	movw	r30, r18
     ed4:	80 83       	st	Z, r24
     ed6:	91 83       	std	Z+1, r25	; 0x01
     ed8:	a2 83       	std	Z+2, r26	; 0x02
     eda:	b3 83       	std	Z+3, r27	; 0x03
     edc:	ce 01       	movw	r24, r28
     ede:	8d 5a       	subi	r24, 0xAD	; 173
     ee0:	9f 4f       	sbci	r25, 0xFF	; 255
     ee2:	9c 01       	movw	r18, r24
     ee4:	20 5b       	subi	r18, 0xB0	; 176
     ee6:	3e 4f       	sbci	r19, 0xFE	; 254
     ee8:	8d 89       	ldd	r24, Y+21	; 0x15
     eea:	9e 89       	ldd	r25, Y+22	; 0x16
     eec:	af 89       	ldd	r26, Y+23	; 0x17
     eee:	b8 8d       	ldd	r27, Y+24	; 0x18
     ef0:	f9 01       	movw	r30, r18
     ef2:	80 83       	st	Z, r24
     ef4:	91 83       	std	Z+1, r25	; 0x01
     ef6:	a2 83       	std	Z+2, r26	; 0x02
     ef8:	b3 83       	std	Z+3, r27	; 0x03
     efa:	ce 01       	movw	r24, r28
     efc:	8d 5a       	subi	r24, 0xAD	; 173
     efe:	9f 4f       	sbci	r25, 0xFF	; 255
     f00:	9c 01       	movw	r18, r24
     f02:	2c 5a       	subi	r18, 0xAC	; 172
     f04:	3e 4f       	sbci	r19, 0xFE	; 254
     f06:	89 ad       	ldd	r24, Y+57	; 0x39
     f08:	9a ad       	ldd	r25, Y+58	; 0x3a
     f0a:	ab ad       	ldd	r26, Y+59	; 0x3b
     f0c:	bc ad       	ldd	r27, Y+60	; 0x3c
     f0e:	f9 01       	movw	r30, r18
     f10:	80 83       	st	Z, r24
     f12:	91 83       	std	Z+1, r25	; 0x01
     f14:	a2 83       	std	Z+2, r26	; 0x02
     f16:	b3 83       	std	Z+3, r27	; 0x03
     f18:	ce 01       	movw	r24, r28
     f1a:	8d 5a       	subi	r24, 0xAD	; 173
     f1c:	9f 4f       	sbci	r25, 0xFF	; 255
     f1e:	9c 01       	movw	r18, r24
     f20:	28 5a       	subi	r18, 0xA8	; 168
     f22:	3e 4f       	sbci	r19, 0xFE	; 254
     f24:	8d 85       	ldd	r24, Y+13	; 0x0d
     f26:	9e 85       	ldd	r25, Y+14	; 0x0e
     f28:	af 85       	ldd	r26, Y+15	; 0x0f
     f2a:	b8 89       	ldd	r27, Y+16	; 0x10
     f2c:	f9 01       	movw	r30, r18
     f2e:	80 83       	st	Z, r24
     f30:	91 83       	std	Z+1, r25	; 0x01
     f32:	a2 83       	std	Z+2, r26	; 0x02
     f34:	b3 83       	std	Z+3, r27	; 0x03
     f36:	ce 01       	movw	r24, r28
     f38:	8d 5a       	subi	r24, 0xAD	; 173
     f3a:	9f 4f       	sbci	r25, 0xFF	; 255
     f3c:	9c 01       	movw	r18, r24
     f3e:	24 5a       	subi	r18, 0xA4	; 164
     f40:	3e 4f       	sbci	r19, 0xFE	; 254
     f42:	89 a9       	ldd	r24, Y+49	; 0x31
     f44:	9a a9       	ldd	r25, Y+50	; 0x32
     f46:	ab a9       	ldd	r26, Y+51	; 0x33
     f48:	bc a9       	ldd	r27, Y+52	; 0x34
     f4a:	f9 01       	movw	r30, r18
     f4c:	80 83       	st	Z, r24
     f4e:	91 83       	std	Z+1, r25	; 0x01
     f50:	a2 83       	std	Z+2, r26	; 0x02
     f52:	b3 83       	std	Z+3, r27	; 0x03
     f54:	ce 01       	movw	r24, r28
     f56:	8d 5a       	subi	r24, 0xAD	; 173
     f58:	9f 4f       	sbci	r25, 0xFF	; 255
     f5a:	9c 01       	movw	r18, r24
     f5c:	20 5a       	subi	r18, 0xA0	; 160
     f5e:	3e 4f       	sbci	r19, 0xFE	; 254
     f60:	8d a5       	ldd	r24, Y+45	; 0x2d
     f62:	9e a5       	ldd	r25, Y+46	; 0x2e
     f64:	af a5       	ldd	r26, Y+47	; 0x2f
     f66:	b8 a9       	ldd	r27, Y+48	; 0x30
     f68:	f9 01       	movw	r30, r18
     f6a:	80 83       	st	Z, r24
     f6c:	91 83       	std	Z+1, r25	; 0x01
     f6e:	a2 83       	std	Z+2, r26	; 0x02
     f70:	b3 83       	std	Z+3, r27	; 0x03
     f72:	ce 01       	movw	r24, r28
     f74:	8d 5a       	subi	r24, 0xAD	; 173
     f76:	9f 4f       	sbci	r25, 0xFF	; 255
     f78:	9c 01       	movw	r18, r24
     f7a:	2c 59       	subi	r18, 0x9C	; 156
     f7c:	3e 4f       	sbci	r19, 0xFE	; 254
     f7e:	8d 8d       	ldd	r24, Y+29	; 0x1d
     f80:	9e 8d       	ldd	r25, Y+30	; 0x1e
     f82:	af 8d       	ldd	r26, Y+31	; 0x1f
     f84:	b8 a1       	ldd	r27, Y+32	; 0x20
     f86:	f9 01       	movw	r30, r18
     f88:	80 83       	st	Z, r24
     f8a:	91 83       	std	Z+1, r25	; 0x01
     f8c:	a2 83       	std	Z+2, r26	; 0x02
     f8e:	b3 83       	std	Z+3, r27	; 0x03
     f90:	ce 01       	movw	r24, r28
     f92:	8d 5a       	subi	r24, 0xAD	; 173
     f94:	9f 4f       	sbci	r25, 0xFF	; 255
     f96:	9c 01       	movw	r18, r24
     f98:	28 59       	subi	r18, 0x98	; 152
     f9a:	3e 4f       	sbci	r19, 0xFE	; 254
     f9c:	89 a1       	ldd	r24, Y+33	; 0x21
     f9e:	9a a1       	ldd	r25, Y+34	; 0x22
     fa0:	ab a1       	ldd	r26, Y+35	; 0x23
     fa2:	bc a1       	ldd	r27, Y+36	; 0x24
     fa4:	f9 01       	movw	r30, r18
     fa6:	80 83       	st	Z, r24
     fa8:	91 83       	std	Z+1, r25	; 0x01
     faa:	a2 83       	std	Z+2, r26	; 0x02
     fac:	b3 83       	std	Z+3, r27	; 0x03
     fae:	ce 01       	movw	r24, r28
     fb0:	8d 5a       	subi	r24, 0xAD	; 173
     fb2:	9f 4f       	sbci	r25, 0xFF	; 255
     fb4:	9c 01       	movw	r18, r24
     fb6:	24 59       	subi	r18, 0x94	; 148
     fb8:	3e 4f       	sbci	r19, 0xFE	; 254
     fba:	8d 8d       	ldd	r24, Y+29	; 0x1d
     fbc:	9e 8d       	ldd	r25, Y+30	; 0x1e
     fbe:	af 8d       	ldd	r26, Y+31	; 0x1f
     fc0:	b8 a1       	ldd	r27, Y+32	; 0x20
     fc2:	f9 01       	movw	r30, r18
     fc4:	80 83       	st	Z, r24
     fc6:	91 83       	std	Z+1, r25	; 0x01
     fc8:	a2 83       	std	Z+2, r26	; 0x02
     fca:	b3 83       	std	Z+3, r27	; 0x03
     fcc:	ce 01       	movw	r24, r28
     fce:	8d 5a       	subi	r24, 0xAD	; 173
     fd0:	9f 4f       	sbci	r25, 0xFF	; 255
     fd2:	9c 01       	movw	r18, r24
     fd4:	20 59       	subi	r18, 0x90	; 144
     fd6:	3e 4f       	sbci	r19, 0xFE	; 254
     fd8:	8d 8d       	ldd	r24, Y+29	; 0x1d
     fda:	9e 8d       	ldd	r25, Y+30	; 0x1e
     fdc:	af 8d       	ldd	r26, Y+31	; 0x1f
     fde:	b8 a1       	ldd	r27, Y+32	; 0x20
     fe0:	f9 01       	movw	r30, r18
     fe2:	80 83       	st	Z, r24
     fe4:	91 83       	std	Z+1, r25	; 0x01
     fe6:	a2 83       	std	Z+2, r26	; 0x02
     fe8:	b3 83       	std	Z+3, r27	; 0x03
     fea:	ce 01       	movw	r24, r28
     fec:	8d 5a       	subi	r24, 0xAD	; 173
     fee:	9f 4f       	sbci	r25, 0xFF	; 255
     ff0:	9c 01       	movw	r18, r24
     ff2:	2c 58       	subi	r18, 0x8C	; 140
     ff4:	3e 4f       	sbci	r19, 0xFE	; 254
     ff6:	8d 85       	ldd	r24, Y+13	; 0x0d
     ff8:	9e 85       	ldd	r25, Y+14	; 0x0e
     ffa:	af 85       	ldd	r26, Y+15	; 0x0f
     ffc:	b8 89       	ldd	r27, Y+16	; 0x10
     ffe:	f9 01       	movw	r30, r18
    1000:	80 83       	st	Z, r24
    1002:	91 83       	std	Z+1, r25	; 0x01
    1004:	a2 83       	std	Z+2, r26	; 0x02
    1006:	b3 83       	std	Z+3, r27	; 0x03
    1008:	ce 01       	movw	r24, r28
    100a:	8d 5a       	subi	r24, 0xAD	; 173
    100c:	9f 4f       	sbci	r25, 0xFF	; 255
    100e:	9c 01       	movw	r18, r24
    1010:	28 58       	subi	r18, 0x88	; 136
    1012:	3e 4f       	sbci	r19, 0xFE	; 254
    1014:	8d 89       	ldd	r24, Y+21	; 0x15
    1016:	9e 89       	ldd	r25, Y+22	; 0x16
    1018:	af 89       	ldd	r26, Y+23	; 0x17
    101a:	b8 8d       	ldd	r27, Y+24	; 0x18
    101c:	f9 01       	movw	r30, r18
    101e:	80 83       	st	Z, r24
    1020:	91 83       	std	Z+1, r25	; 0x01
    1022:	a2 83       	std	Z+2, r26	; 0x02
    1024:	b3 83       	std	Z+3, r27	; 0x03
    1026:	ce 01       	movw	r24, r28
    1028:	8d 5a       	subi	r24, 0xAD	; 173
    102a:	9f 4f       	sbci	r25, 0xFF	; 255
    102c:	9c 01       	movw	r18, r24
    102e:	24 58       	subi	r18, 0x84	; 132
    1030:	3e 4f       	sbci	r19, 0xFE	; 254
    1032:	89 ad       	ldd	r24, Y+57	; 0x39
    1034:	9a ad       	ldd	r25, Y+58	; 0x3a
    1036:	ab ad       	ldd	r26, Y+59	; 0x3b
    1038:	bc ad       	ldd	r27, Y+60	; 0x3c
    103a:	f9 01       	movw	r30, r18
    103c:	80 83       	st	Z, r24
    103e:	91 83       	std	Z+1, r25	; 0x01
    1040:	a2 83       	std	Z+2, r26	; 0x02
    1042:	b3 83       	std	Z+3, r27	; 0x03
    1044:	ce 01       	movw	r24, r28
    1046:	8d 5a       	subi	r24, 0xAD	; 173
    1048:	9f 4f       	sbci	r25, 0xFF	; 255
    104a:	9c 01       	movw	r18, r24
    104c:	20 58       	subi	r18, 0x80	; 128
    104e:	3e 4f       	sbci	r19, 0xFE	; 254
    1050:	8d 85       	ldd	r24, Y+13	; 0x0d
    1052:	9e 85       	ldd	r25, Y+14	; 0x0e
    1054:	af 85       	ldd	r26, Y+15	; 0x0f
    1056:	b8 89       	ldd	r27, Y+16	; 0x10
    1058:	f9 01       	movw	r30, r18
    105a:	80 83       	st	Z, r24
    105c:	91 83       	std	Z+1, r25	; 0x01
    105e:	a2 83       	std	Z+2, r26	; 0x02
    1060:	b3 83       	std	Z+3, r27	; 0x03
    1062:	ce 01       	movw	r24, r28
    1064:	8d 5a       	subi	r24, 0xAD	; 173
    1066:	9f 4f       	sbci	r25, 0xFF	; 255
    1068:	9c 01       	movw	r18, r24
    106a:	2c 57       	subi	r18, 0x7C	; 124
    106c:	3e 4f       	sbci	r19, 0xFE	; 254
    106e:	89 a9       	ldd	r24, Y+49	; 0x31
    1070:	9a a9       	ldd	r25, Y+50	; 0x32
    1072:	ab a9       	ldd	r26, Y+51	; 0x33
    1074:	bc a9       	ldd	r27, Y+52	; 0x34
    1076:	f9 01       	movw	r30, r18
    1078:	80 83       	st	Z, r24
    107a:	91 83       	std	Z+1, r25	; 0x01
    107c:	a2 83       	std	Z+2, r26	; 0x02
    107e:	b3 83       	std	Z+3, r27	; 0x03
    1080:	ce 01       	movw	r24, r28
    1082:	8d 5a       	subi	r24, 0xAD	; 173
    1084:	9f 4f       	sbci	r25, 0xFF	; 255
    1086:	9c 01       	movw	r18, r24
    1088:	28 57       	subi	r18, 0x78	; 120
    108a:	3e 4f       	sbci	r19, 0xFE	; 254
    108c:	8d a5       	ldd	r24, Y+45	; 0x2d
    108e:	9e a5       	ldd	r25, Y+46	; 0x2e
    1090:	af a5       	ldd	r26, Y+47	; 0x2f
    1092:	b8 a9       	ldd	r27, Y+48	; 0x30
    1094:	f9 01       	movw	r30, r18
    1096:	80 83       	st	Z, r24
    1098:	91 83       	std	Z+1, r25	; 0x01
    109a:	a2 83       	std	Z+2, r26	; 0x02
    109c:	b3 83       	std	Z+3, r27	; 0x03
    109e:	ce 01       	movw	r24, r28
    10a0:	8d 5a       	subi	r24, 0xAD	; 173
    10a2:	9f 4f       	sbci	r25, 0xFF	; 255
    10a4:	9c 01       	movw	r18, r24
    10a6:	24 57       	subi	r18, 0x74	; 116
    10a8:	3e 4f       	sbci	r19, 0xFE	; 254
    10aa:	8d 8d       	ldd	r24, Y+29	; 0x1d
    10ac:	9e 8d       	ldd	r25, Y+30	; 0x1e
    10ae:	af 8d       	ldd	r26, Y+31	; 0x1f
    10b0:	b8 a1       	ldd	r27, Y+32	; 0x20
    10b2:	f9 01       	movw	r30, r18
    10b4:	80 83       	st	Z, r24
    10b6:	91 83       	std	Z+1, r25	; 0x01
    10b8:	a2 83       	std	Z+2, r26	; 0x02
    10ba:	b3 83       	std	Z+3, r27	; 0x03
    10bc:	ce 01       	movw	r24, r28
    10be:	8d 5a       	subi	r24, 0xAD	; 173
    10c0:	9f 4f       	sbci	r25, 0xFF	; 255
    10c2:	9c 01       	movw	r18, r24
    10c4:	20 57       	subi	r18, 0x70	; 112
    10c6:	3e 4f       	sbci	r19, 0xFE	; 254
    10c8:	89 a1       	ldd	r24, Y+33	; 0x21
    10ca:	9a a1       	ldd	r25, Y+34	; 0x22
    10cc:	ab a1       	ldd	r26, Y+35	; 0x23
    10ce:	bc a1       	ldd	r27, Y+36	; 0x24
    10d0:	f9 01       	movw	r30, r18
    10d2:	80 83       	st	Z, r24
    10d4:	91 83       	std	Z+1, r25	; 0x01
    10d6:	a2 83       	std	Z+2, r26	; 0x02
    10d8:	b3 83       	std	Z+3, r27	; 0x03
    10da:	ce 01       	movw	r24, r28
    10dc:	8d 5a       	subi	r24, 0xAD	; 173
    10de:	9f 4f       	sbci	r25, 0xFF	; 255
    10e0:	9c 01       	movw	r18, r24
    10e2:	2c 56       	subi	r18, 0x6C	; 108
    10e4:	3e 4f       	sbci	r19, 0xFE	; 254
    10e6:	8d 8d       	ldd	r24, Y+29	; 0x1d
    10e8:	9e 8d       	ldd	r25, Y+30	; 0x1e
    10ea:	af 8d       	ldd	r26, Y+31	; 0x1f
    10ec:	b8 a1       	ldd	r27, Y+32	; 0x20
    10ee:	f9 01       	movw	r30, r18
    10f0:	80 83       	st	Z, r24
    10f2:	91 83       	std	Z+1, r25	; 0x01
    10f4:	a2 83       	std	Z+2, r26	; 0x02
    10f6:	b3 83       	std	Z+3, r27	; 0x03
		Ab4, E4, F4, E4, 

		E4, C4, D4, B4, C4, A4,
		Ab4, E4, F4, E4
	};
	const short times[] = {
    10f8:	ce 01       	movw	r24, r28
    10fa:	85 51       	subi	r24, 0x15	; 21
    10fc:	9e 4f       	sbci	r25, 0xFE	; 254
    10fe:	9e 01       	movw	r18, r28
    1100:	23 5b       	subi	r18, 0xB3	; 179
    1102:	3f 4f       	sbci	r19, 0xFF	; 255
    1104:	f9 01       	movw	r30, r18
    1106:	20 81       	ld	r18, Z
    1108:	31 81       	ldd	r19, Z+1	; 0x01
    110a:	fc 01       	movw	r30, r24
    110c:	31 83       	std	Z+1, r19	; 0x01
    110e:	20 83       	st	Z, r18
    1110:	ce 01       	movw	r24, r28
    1112:	85 51       	subi	r24, 0x15	; 21
    1114:	9e 4f       	sbci	r25, 0xFE	; 254
    1116:	9e 01       	movw	r18, r28
    1118:	21 5b       	subi	r18, 0xB1	; 177
    111a:	3f 4f       	sbci	r19, 0xFF	; 255
    111c:	f9 01       	movw	r30, r18
    111e:	20 81       	ld	r18, Z
    1120:	31 81       	ldd	r19, Z+1	; 0x01
    1122:	fc 01       	movw	r30, r24
    1124:	33 83       	std	Z+3, r19	; 0x03
    1126:	22 83       	std	Z+2, r18	; 0x02
    1128:	ce 01       	movw	r24, r28
    112a:	85 51       	subi	r24, 0x15	; 21
    112c:	9e 4f       	sbci	r25, 0xFE	; 254
    112e:	9e 01       	movw	r18, r28
    1130:	21 5b       	subi	r18, 0xB1	; 177
    1132:	3f 4f       	sbci	r19, 0xFF	; 255
    1134:	f9 01       	movw	r30, r18
    1136:	20 81       	ld	r18, Z
    1138:	31 81       	ldd	r19, Z+1	; 0x01
    113a:	fc 01       	movw	r30, r24
    113c:	35 83       	std	Z+5, r19	; 0x05
    113e:	24 83       	std	Z+4, r18	; 0x04
    1140:	ce 01       	movw	r24, r28
    1142:	85 51       	subi	r24, 0x15	; 21
    1144:	9e 4f       	sbci	r25, 0xFE	; 254
    1146:	9e 01       	movw	r18, r28
    1148:	23 5b       	subi	r18, 0xB3	; 179
    114a:	3f 4f       	sbci	r19, 0xFF	; 255
    114c:	f9 01       	movw	r30, r18
    114e:	20 81       	ld	r18, Z
    1150:	31 81       	ldd	r19, Z+1	; 0x01
    1152:	fc 01       	movw	r30, r24
    1154:	37 83       	std	Z+7, r19	; 0x07
    1156:	26 83       	std	Z+6, r18	; 0x06
    1158:	ce 01       	movw	r24, r28
    115a:	85 51       	subi	r24, 0x15	; 21
    115c:	9e 4f       	sbci	r25, 0xFE	; 254
    115e:	9e 01       	movw	r18, r28
    1160:	21 5b       	subi	r18, 0xB1	; 177
    1162:	3f 4f       	sbci	r19, 0xFF	; 255
    1164:	f9 01       	movw	r30, r18
    1166:	20 81       	ld	r18, Z
    1168:	31 81       	ldd	r19, Z+1	; 0x01
    116a:	fc 01       	movw	r30, r24
    116c:	31 87       	std	Z+9, r19	; 0x09
    116e:	20 87       	std	Z+8, r18	; 0x08
    1170:	ce 01       	movw	r24, r28
    1172:	85 51       	subi	r24, 0x15	; 21
    1174:	9e 4f       	sbci	r25, 0xFE	; 254
    1176:	9e 01       	movw	r18, r28
    1178:	21 5b       	subi	r18, 0xB1	; 177
    117a:	3f 4f       	sbci	r19, 0xFF	; 255
    117c:	f9 01       	movw	r30, r18
    117e:	20 81       	ld	r18, Z
    1180:	31 81       	ldd	r19, Z+1	; 0x01
    1182:	fc 01       	movw	r30, r24
    1184:	33 87       	std	Z+11, r19	; 0x0b
    1186:	22 87       	std	Z+10, r18	; 0x0a
    1188:	ce 01       	movw	r24, r28
    118a:	85 51       	subi	r24, 0x15	; 21
    118c:	9e 4f       	sbci	r25, 0xFE	; 254
    118e:	9e 01       	movw	r18, r28
    1190:	23 5b       	subi	r18, 0xB3	; 179
    1192:	3f 4f       	sbci	r19, 0xFF	; 255
    1194:	f9 01       	movw	r30, r18
    1196:	20 81       	ld	r18, Z
    1198:	31 81       	ldd	r19, Z+1	; 0x01
    119a:	fc 01       	movw	r30, r24
    119c:	35 87       	std	Z+13, r19	; 0x0d
    119e:	24 87       	std	Z+12, r18	; 0x0c
    11a0:	ce 01       	movw	r24, r28
    11a2:	85 51       	subi	r24, 0x15	; 21
    11a4:	9e 4f       	sbci	r25, 0xFE	; 254
    11a6:	9e 01       	movw	r18, r28
    11a8:	21 5b       	subi	r18, 0xB1	; 177
    11aa:	3f 4f       	sbci	r19, 0xFF	; 255
    11ac:	f9 01       	movw	r30, r18
    11ae:	20 81       	ld	r18, Z
    11b0:	31 81       	ldd	r19, Z+1	; 0x01
    11b2:	fc 01       	movw	r30, r24
    11b4:	37 87       	std	Z+15, r19	; 0x0f
    11b6:	26 87       	std	Z+14, r18	; 0x0e
    11b8:	ce 01       	movw	r24, r28
    11ba:	85 51       	subi	r24, 0x15	; 21
    11bc:	9e 4f       	sbci	r25, 0xFE	; 254
    11be:	9e 01       	movw	r18, r28
    11c0:	21 5b       	subi	r18, 0xB1	; 177
    11c2:	3f 4f       	sbci	r19, 0xFF	; 255
    11c4:	f9 01       	movw	r30, r18
    11c6:	20 81       	ld	r18, Z
    11c8:	31 81       	ldd	r19, Z+1	; 0x01
    11ca:	fc 01       	movw	r30, r24
    11cc:	31 8b       	std	Z+17, r19	; 0x11
    11ce:	20 8b       	std	Z+16, r18	; 0x10
    11d0:	ce 01       	movw	r24, r28
    11d2:	85 51       	subi	r24, 0x15	; 21
    11d4:	9e 4f       	sbci	r25, 0xFE	; 254
    11d6:	9e 01       	movw	r18, r28
    11d8:	23 5b       	subi	r18, 0xB3	; 179
    11da:	3f 4f       	sbci	r19, 0xFF	; 255
    11dc:	f9 01       	movw	r30, r18
    11de:	20 81       	ld	r18, Z
    11e0:	31 81       	ldd	r19, Z+1	; 0x01
    11e2:	fc 01       	movw	r30, r24
    11e4:	33 8b       	std	Z+19, r19	; 0x13
    11e6:	22 8b       	std	Z+18, r18	; 0x12
    11e8:	ce 01       	movw	r24, r28
    11ea:	85 51       	subi	r24, 0x15	; 21
    11ec:	9e 4f       	sbci	r25, 0xFE	; 254
    11ee:	9e 01       	movw	r18, r28
    11f0:	21 5b       	subi	r18, 0xB1	; 177
    11f2:	3f 4f       	sbci	r19, 0xFF	; 255
    11f4:	f9 01       	movw	r30, r18
    11f6:	20 81       	ld	r18, Z
    11f8:	31 81       	ldd	r19, Z+1	; 0x01
    11fa:	fc 01       	movw	r30, r24
    11fc:	35 8b       	std	Z+21, r19	; 0x15
    11fe:	24 8b       	std	Z+20, r18	; 0x14
    1200:	ce 01       	movw	r24, r28
    1202:	85 51       	subi	r24, 0x15	; 21
    1204:	9e 4f       	sbci	r25, 0xFE	; 254
    1206:	9e 01       	movw	r18, r28
    1208:	21 5b       	subi	r18, 0xB1	; 177
    120a:	3f 4f       	sbci	r19, 0xFF	; 255
    120c:	f9 01       	movw	r30, r18
    120e:	20 81       	ld	r18, Z
    1210:	31 81       	ldd	r19, Z+1	; 0x01
    1212:	fc 01       	movw	r30, r24
    1214:	37 8b       	std	Z+23, r19	; 0x17
    1216:	26 8b       	std	Z+22, r18	; 0x16
    1218:	ce 01       	movw	r24, r28
    121a:	85 51       	subi	r24, 0x15	; 21
    121c:	9e 4f       	sbci	r25, 0xFE	; 254
    121e:	9e 01       	movw	r18, r28
    1220:	23 5b       	subi	r18, 0xB3	; 179
    1222:	3f 4f       	sbci	r19, 0xFF	; 255
    1224:	f9 01       	movw	r30, r18
    1226:	20 81       	ld	r18, Z
    1228:	31 81       	ldd	r19, Z+1	; 0x01
    122a:	fc 01       	movw	r30, r24
    122c:	31 8f       	std	Z+25, r19	; 0x19
    122e:	20 8f       	std	Z+24, r18	; 0x18
    1230:	ce 01       	movw	r24, r28
    1232:	85 51       	subi	r24, 0x15	; 21
    1234:	9e 4f       	sbci	r25, 0xFE	; 254
    1236:	9e 01       	movw	r18, r28
    1238:	21 5b       	subi	r18, 0xB1	; 177
    123a:	3f 4f       	sbci	r19, 0xFF	; 255
    123c:	f9 01       	movw	r30, r18
    123e:	20 81       	ld	r18, Z
    1240:	31 81       	ldd	r19, Z+1	; 0x01
    1242:	fc 01       	movw	r30, r24
    1244:	33 8f       	std	Z+27, r19	; 0x1b
    1246:	22 8f       	std	Z+26, r18	; 0x1a
    1248:	ce 01       	movw	r24, r28
    124a:	85 51       	subi	r24, 0x15	; 21
    124c:	9e 4f       	sbci	r25, 0xFE	; 254
    124e:	9e 01       	movw	r18, r28
    1250:	21 5b       	subi	r18, 0xB1	; 177
    1252:	3f 4f       	sbci	r19, 0xFF	; 255
    1254:	f9 01       	movw	r30, r18
    1256:	20 81       	ld	r18, Z
    1258:	31 81       	ldd	r19, Z+1	; 0x01
    125a:	fc 01       	movw	r30, r24
    125c:	35 8f       	std	Z+29, r19	; 0x1d
    125e:	24 8f       	std	Z+28, r18	; 0x1c
    1260:	ce 01       	movw	r24, r28
    1262:	85 51       	subi	r24, 0x15	; 21
    1264:	9e 4f       	sbci	r25, 0xFE	; 254
    1266:	9e 01       	movw	r18, r28
    1268:	23 5b       	subi	r18, 0xB3	; 179
    126a:	3f 4f       	sbci	r19, 0xFF	; 255
    126c:	f9 01       	movw	r30, r18
    126e:	20 81       	ld	r18, Z
    1270:	31 81       	ldd	r19, Z+1	; 0x01
    1272:	fc 01       	movw	r30, r24
    1274:	37 8f       	std	Z+31, r19	; 0x1f
    1276:	26 8f       	std	Z+30, r18	; 0x1e
    1278:	ce 01       	movw	r24, r28
    127a:	85 51       	subi	r24, 0x15	; 21
    127c:	9e 4f       	sbci	r25, 0xFE	; 254
    127e:	9e 01       	movw	r18, r28
    1280:	23 5b       	subi	r18, 0xB3	; 179
    1282:	3f 4f       	sbci	r19, 0xFF	; 255
    1284:	f9 01       	movw	r30, r18
    1286:	20 81       	ld	r18, Z
    1288:	31 81       	ldd	r19, Z+1	; 0x01
    128a:	fc 01       	movw	r30, r24
    128c:	31 a3       	std	Z+33, r19	; 0x21
    128e:	20 a3       	std	Z+32, r18	; 0x20
    1290:	ce 01       	movw	r24, r28
    1292:	85 51       	subi	r24, 0x15	; 21
    1294:	9e 4f       	sbci	r25, 0xFE	; 254
    1296:	9e 01       	movw	r18, r28
    1298:	23 5b       	subi	r18, 0xB3	; 179
    129a:	3f 4f       	sbci	r19, 0xFF	; 255
    129c:	f9 01       	movw	r30, r18
    129e:	20 81       	ld	r18, Z
    12a0:	31 81       	ldd	r19, Z+1	; 0x01
    12a2:	fc 01       	movw	r30, r24
    12a4:	33 a3       	std	Z+35, r19	; 0x23
    12a6:	22 a3       	std	Z+34, r18	; 0x22
    12a8:	ce 01       	movw	r24, r28
    12aa:	85 51       	subi	r24, 0x15	; 21
    12ac:	9e 4f       	sbci	r25, 0xFE	; 254
    12ae:	9e 01       	movw	r18, r28
    12b0:	23 5b       	subi	r18, 0xB3	; 179
    12b2:	3f 4f       	sbci	r19, 0xFF	; 255
    12b4:	f9 01       	movw	r30, r18
    12b6:	20 81       	ld	r18, Z
    12b8:	31 81       	ldd	r19, Z+1	; 0x01
    12ba:	fc 01       	movw	r30, r24
    12bc:	35 a3       	std	Z+37, r19	; 0x25
    12be:	24 a3       	std	Z+36, r18	; 0x24
    12c0:	ce 01       	movw	r24, r28
    12c2:	85 51       	subi	r24, 0x15	; 21
    12c4:	9e 4f       	sbci	r25, 0xFE	; 254
    12c6:	9e 01       	movw	r18, r28
    12c8:	27 5b       	subi	r18, 0xB7	; 183
    12ca:	3f 4f       	sbci	r19, 0xFF	; 255
    12cc:	f9 01       	movw	r30, r18
    12ce:	20 81       	ld	r18, Z
    12d0:	31 81       	ldd	r19, Z+1	; 0x01
    12d2:	fc 01       	movw	r30, r24
    12d4:	37 a3       	std	Z+39, r19	; 0x27
    12d6:	26 a3       	std	Z+38, r18	; 0x26
    12d8:	ce 01       	movw	r24, r28
    12da:	85 51       	subi	r24, 0x15	; 21
    12dc:	9e 4f       	sbci	r25, 0xFE	; 254
    12de:	9e 01       	movw	r18, r28
    12e0:	21 5b       	subi	r18, 0xB1	; 177
    12e2:	3f 4f       	sbci	r19, 0xFF	; 255
    12e4:	f9 01       	movw	r30, r18
    12e6:	20 81       	ld	r18, Z
    12e8:	31 81       	ldd	r19, Z+1	; 0x01
    12ea:	fc 01       	movw	r30, r24
    12ec:	31 a7       	std	Z+41, r19	; 0x29
    12ee:	20 a7       	std	Z+40, r18	; 0x28
    12f0:	ce 01       	movw	r24, r28
    12f2:	85 51       	subi	r24, 0x15	; 21
    12f4:	9e 4f       	sbci	r25, 0xFE	; 254
    12f6:	9e 01       	movw	r18, r28
    12f8:	23 5b       	subi	r18, 0xB3	; 179
    12fa:	3f 4f       	sbci	r19, 0xFF	; 255
    12fc:	f9 01       	movw	r30, r18
    12fe:	20 81       	ld	r18, Z
    1300:	31 81       	ldd	r19, Z+1	; 0x01
    1302:	fc 01       	movw	r30, r24
    1304:	33 a7       	std	Z+43, r19	; 0x2b
    1306:	22 a7       	std	Z+42, r18	; 0x2a
    1308:	ce 01       	movw	r24, r28
    130a:	85 51       	subi	r24, 0x15	; 21
    130c:	9e 4f       	sbci	r25, 0xFE	; 254
    130e:	9e 01       	movw	r18, r28
    1310:	21 5b       	subi	r18, 0xB1	; 177
    1312:	3f 4f       	sbci	r19, 0xFF	; 255
    1314:	f9 01       	movw	r30, r18
    1316:	20 81       	ld	r18, Z
    1318:	31 81       	ldd	r19, Z+1	; 0x01
    131a:	fc 01       	movw	r30, r24
    131c:	35 a7       	std	Z+45, r19	; 0x2d
    131e:	24 a7       	std	Z+44, r18	; 0x2c
    1320:	ce 01       	movw	r24, r28
    1322:	85 51       	subi	r24, 0x15	; 21
    1324:	9e 4f       	sbci	r25, 0xFE	; 254
    1326:	9e 01       	movw	r18, r28
    1328:	23 5b       	subi	r18, 0xB3	; 179
    132a:	3f 4f       	sbci	r19, 0xFF	; 255
    132c:	f9 01       	movw	r30, r18
    132e:	20 81       	ld	r18, Z
    1330:	31 81       	ldd	r19, Z+1	; 0x01
    1332:	fc 01       	movw	r30, r24
    1334:	37 a7       	std	Z+47, r19	; 0x2f
    1336:	26 a7       	std	Z+46, r18	; 0x2e
    1338:	ce 01       	movw	r24, r28
    133a:	85 51       	subi	r24, 0x15	; 21
    133c:	9e 4f       	sbci	r25, 0xFE	; 254
    133e:	9e 01       	movw	r18, r28
    1340:	21 5b       	subi	r18, 0xB1	; 177
    1342:	3f 4f       	sbci	r19, 0xFF	; 255
    1344:	f9 01       	movw	r30, r18
    1346:	20 81       	ld	r18, Z
    1348:	31 81       	ldd	r19, Z+1	; 0x01
    134a:	fc 01       	movw	r30, r24
    134c:	31 ab       	std	Z+49, r19	; 0x31
    134e:	20 ab       	std	Z+48, r18	; 0x30
    1350:	ce 01       	movw	r24, r28
    1352:	85 51       	subi	r24, 0x15	; 21
    1354:	9e 4f       	sbci	r25, 0xFE	; 254
    1356:	9e 01       	movw	r18, r28
    1358:	21 5b       	subi	r18, 0xB1	; 177
    135a:	3f 4f       	sbci	r19, 0xFF	; 255
    135c:	f9 01       	movw	r30, r18
    135e:	20 81       	ld	r18, Z
    1360:	31 81       	ldd	r19, Z+1	; 0x01
    1362:	fc 01       	movw	r30, r24
    1364:	33 ab       	std	Z+51, r19	; 0x33
    1366:	22 ab       	std	Z+50, r18	; 0x32
    1368:	ce 01       	movw	r24, r28
    136a:	85 51       	subi	r24, 0x15	; 21
    136c:	9e 4f       	sbci	r25, 0xFE	; 254
    136e:	9e 01       	movw	r18, r28
    1370:	23 5b       	subi	r18, 0xB3	; 179
    1372:	3f 4f       	sbci	r19, 0xFF	; 255
    1374:	f9 01       	movw	r30, r18
    1376:	20 81       	ld	r18, Z
    1378:	31 81       	ldd	r19, Z+1	; 0x01
    137a:	fc 01       	movw	r30, r24
    137c:	35 ab       	std	Z+53, r19	; 0x35
    137e:	24 ab       	std	Z+52, r18	; 0x34
    1380:	ce 01       	movw	r24, r28
    1382:	85 51       	subi	r24, 0x15	; 21
    1384:	9e 4f       	sbci	r25, 0xFE	; 254
    1386:	9e 01       	movw	r18, r28
    1388:	21 5b       	subi	r18, 0xB1	; 177
    138a:	3f 4f       	sbci	r19, 0xFF	; 255
    138c:	f9 01       	movw	r30, r18
    138e:	20 81       	ld	r18, Z
    1390:	31 81       	ldd	r19, Z+1	; 0x01
    1392:	fc 01       	movw	r30, r24
    1394:	37 ab       	std	Z+55, r19	; 0x37
    1396:	26 ab       	std	Z+54, r18	; 0x36
    1398:	ce 01       	movw	r24, r28
    139a:	85 51       	subi	r24, 0x15	; 21
    139c:	9e 4f       	sbci	r25, 0xFE	; 254
    139e:	9e 01       	movw	r18, r28
    13a0:	21 5b       	subi	r18, 0xB1	; 177
    13a2:	3f 4f       	sbci	r19, 0xFF	; 255
    13a4:	f9 01       	movw	r30, r18
    13a6:	20 81       	ld	r18, Z
    13a8:	31 81       	ldd	r19, Z+1	; 0x01
    13aa:	fc 01       	movw	r30, r24
    13ac:	31 af       	std	Z+57, r19	; 0x39
    13ae:	20 af       	std	Z+56, r18	; 0x38
    13b0:	ce 01       	movw	r24, r28
    13b2:	85 51       	subi	r24, 0x15	; 21
    13b4:	9e 4f       	sbci	r25, 0xFE	; 254
    13b6:	9e 01       	movw	r18, r28
    13b8:	23 5b       	subi	r18, 0xB3	; 179
    13ba:	3f 4f       	sbci	r19, 0xFF	; 255
    13bc:	f9 01       	movw	r30, r18
    13be:	20 81       	ld	r18, Z
    13c0:	31 81       	ldd	r19, Z+1	; 0x01
    13c2:	fc 01       	movw	r30, r24
    13c4:	33 af       	std	Z+59, r19	; 0x3b
    13c6:	22 af       	std	Z+58, r18	; 0x3a
    13c8:	ce 01       	movw	r24, r28
    13ca:	85 51       	subi	r24, 0x15	; 21
    13cc:	9e 4f       	sbci	r25, 0xFE	; 254
    13ce:	9e 01       	movw	r18, r28
    13d0:	21 5b       	subi	r18, 0xB1	; 177
    13d2:	3f 4f       	sbci	r19, 0xFF	; 255
    13d4:	f9 01       	movw	r30, r18
    13d6:	20 81       	ld	r18, Z
    13d8:	31 81       	ldd	r19, Z+1	; 0x01
    13da:	fc 01       	movw	r30, r24
    13dc:	35 af       	std	Z+61, r19	; 0x3d
    13de:	24 af       	std	Z+60, r18	; 0x3c
    13e0:	ce 01       	movw	r24, r28
    13e2:	85 51       	subi	r24, 0x15	; 21
    13e4:	9e 4f       	sbci	r25, 0xFE	; 254
    13e6:	9e 01       	movw	r18, r28
    13e8:	21 5b       	subi	r18, 0xB1	; 177
    13ea:	3f 4f       	sbci	r19, 0xFF	; 255
    13ec:	f9 01       	movw	r30, r18
    13ee:	20 81       	ld	r18, Z
    13f0:	31 81       	ldd	r19, Z+1	; 0x01
    13f2:	fc 01       	movw	r30, r24
    13f4:	37 af       	std	Z+63, r19	; 0x3f
    13f6:	26 af       	std	Z+62, r18	; 0x3e
    13f8:	ce 01       	movw	r24, r28
    13fa:	85 51       	subi	r24, 0x15	; 21
    13fc:	9e 4f       	sbci	r25, 0xFE	; 254
    13fe:	80 5c       	subi	r24, 0xC0	; 192
    1400:	9f 4f       	sbci	r25, 0xFF	; 255
    1402:	9e 01       	movw	r18, r28
    1404:	23 5b       	subi	r18, 0xB3	; 179
    1406:	3f 4f       	sbci	r19, 0xFF	; 255
    1408:	f9 01       	movw	r30, r18
    140a:	20 81       	ld	r18, Z
    140c:	31 81       	ldd	r19, Z+1	; 0x01
    140e:	fc 01       	movw	r30, r24
    1410:	31 83       	std	Z+1, r19	; 0x01
    1412:	20 83       	st	Z, r18
    1414:	ce 01       	movw	r24, r28
    1416:	85 51       	subi	r24, 0x15	; 21
    1418:	9e 4f       	sbci	r25, 0xFE	; 254
    141a:	8e 5b       	subi	r24, 0xBE	; 190
    141c:	9f 4f       	sbci	r25, 0xFF	; 255
    141e:	9e 01       	movw	r18, r28
    1420:	21 5b       	subi	r18, 0xB1	; 177
    1422:	3f 4f       	sbci	r19, 0xFF	; 255
    1424:	f9 01       	movw	r30, r18
    1426:	20 81       	ld	r18, Z
    1428:	31 81       	ldd	r19, Z+1	; 0x01
    142a:	fc 01       	movw	r30, r24
    142c:	31 83       	std	Z+1, r19	; 0x01
    142e:	20 83       	st	Z, r18
    1430:	ce 01       	movw	r24, r28
    1432:	85 51       	subi	r24, 0x15	; 21
    1434:	9e 4f       	sbci	r25, 0xFE	; 254
    1436:	8c 5b       	subi	r24, 0xBC	; 188
    1438:	9f 4f       	sbci	r25, 0xFF	; 255
    143a:	9e 01       	movw	r18, r28
    143c:	21 5b       	subi	r18, 0xB1	; 177
    143e:	3f 4f       	sbci	r19, 0xFF	; 255
    1440:	f9 01       	movw	r30, r18
    1442:	20 81       	ld	r18, Z
    1444:	31 81       	ldd	r19, Z+1	; 0x01
    1446:	fc 01       	movw	r30, r24
    1448:	31 83       	std	Z+1, r19	; 0x01
    144a:	20 83       	st	Z, r18
    144c:	ce 01       	movw	r24, r28
    144e:	85 51       	subi	r24, 0x15	; 21
    1450:	9e 4f       	sbci	r25, 0xFE	; 254
    1452:	8a 5b       	subi	r24, 0xBA	; 186
    1454:	9f 4f       	sbci	r25, 0xFF	; 255
    1456:	9e 01       	movw	r18, r28
    1458:	23 5b       	subi	r18, 0xB3	; 179
    145a:	3f 4f       	sbci	r19, 0xFF	; 255
    145c:	f9 01       	movw	r30, r18
    145e:	20 81       	ld	r18, Z
    1460:	31 81       	ldd	r19, Z+1	; 0x01
    1462:	fc 01       	movw	r30, r24
    1464:	31 83       	std	Z+1, r19	; 0x01
    1466:	20 83       	st	Z, r18
    1468:	ce 01       	movw	r24, r28
    146a:	85 51       	subi	r24, 0x15	; 21
    146c:	9e 4f       	sbci	r25, 0xFE	; 254
    146e:	88 5b       	subi	r24, 0xB8	; 184
    1470:	9f 4f       	sbci	r25, 0xFF	; 255
    1472:	9e 01       	movw	r18, r28
    1474:	23 5b       	subi	r18, 0xB3	; 179
    1476:	3f 4f       	sbci	r19, 0xFF	; 255
    1478:	f9 01       	movw	r30, r18
    147a:	20 81       	ld	r18, Z
    147c:	31 81       	ldd	r19, Z+1	; 0x01
    147e:	fc 01       	movw	r30, r24
    1480:	31 83       	std	Z+1, r19	; 0x01
    1482:	20 83       	st	Z, r18
    1484:	ce 01       	movw	r24, r28
    1486:	85 51       	subi	r24, 0x15	; 21
    1488:	9e 4f       	sbci	r25, 0xFE	; 254
    148a:	86 5b       	subi	r24, 0xB6	; 182
    148c:	9f 4f       	sbci	r25, 0xFF	; 255
    148e:	9e 01       	movw	r18, r28
    1490:	23 5b       	subi	r18, 0xB3	; 179
    1492:	3f 4f       	sbci	r19, 0xFF	; 255
    1494:	f9 01       	movw	r30, r18
    1496:	20 81       	ld	r18, Z
    1498:	31 81       	ldd	r19, Z+1	; 0x01
    149a:	fc 01       	movw	r30, r24
    149c:	31 83       	std	Z+1, r19	; 0x01
    149e:	20 83       	st	Z, r18
    14a0:	ce 01       	movw	r24, r28
    14a2:	85 51       	subi	r24, 0x15	; 21
    14a4:	9e 4f       	sbci	r25, 0xFE	; 254
    14a6:	84 5b       	subi	r24, 0xB4	; 180
    14a8:	9f 4f       	sbci	r25, 0xFF	; 255
    14aa:	9e 01       	movw	r18, r28
    14ac:	23 5b       	subi	r18, 0xB3	; 179
    14ae:	3f 4f       	sbci	r19, 0xFF	; 255
    14b0:	f9 01       	movw	r30, r18
    14b2:	20 81       	ld	r18, Z
    14b4:	31 81       	ldd	r19, Z+1	; 0x01
    14b6:	fc 01       	movw	r30, r24
    14b8:	31 83       	std	Z+1, r19	; 0x01
    14ba:	20 83       	st	Z, r18
    14bc:	ce 01       	movw	r24, r28
    14be:	85 51       	subi	r24, 0x15	; 21
    14c0:	9e 4f       	sbci	r25, 0xFE	; 254
    14c2:	82 5b       	subi	r24, 0xB2	; 178
    14c4:	9f 4f       	sbci	r25, 0xFF	; 255
    14c6:	9e 01       	movw	r18, r28
    14c8:	23 5b       	subi	r18, 0xB3	; 179
    14ca:	3f 4f       	sbci	r19, 0xFF	; 255
    14cc:	f9 01       	movw	r30, r18
    14ce:	20 81       	ld	r18, Z
    14d0:	31 81       	ldd	r19, Z+1	; 0x01
    14d2:	fc 01       	movw	r30, r24
    14d4:	31 83       	std	Z+1, r19	; 0x01
    14d6:	20 83       	st	Z, r18
    14d8:	ce 01       	movw	r24, r28
    14da:	85 51       	subi	r24, 0x15	; 21
    14dc:	9e 4f       	sbci	r25, 0xFE	; 254
    14de:	80 5b       	subi	r24, 0xB0	; 176
    14e0:	9f 4f       	sbci	r25, 0xFF	; 255
    14e2:	9e 01       	movw	r18, r28
    14e4:	23 5b       	subi	r18, 0xB3	; 179
    14e6:	3f 4f       	sbci	r19, 0xFF	; 255
    14e8:	f9 01       	movw	r30, r18
    14ea:	20 81       	ld	r18, Z
    14ec:	31 81       	ldd	r19, Z+1	; 0x01
    14ee:	fc 01       	movw	r30, r24
    14f0:	31 83       	std	Z+1, r19	; 0x01
    14f2:	20 83       	st	Z, r18
    14f4:	ce 01       	movw	r24, r28
    14f6:	85 51       	subi	r24, 0x15	; 21
    14f8:	9e 4f       	sbci	r25, 0xFE	; 254
    14fa:	8e 5a       	subi	r24, 0xAE	; 174
    14fc:	9f 4f       	sbci	r25, 0xFF	; 255
    14fe:	9e 01       	movw	r18, r28
    1500:	23 5b       	subi	r18, 0xB3	; 179
    1502:	3f 4f       	sbci	r19, 0xFF	; 255
    1504:	f9 01       	movw	r30, r18
    1506:	20 81       	ld	r18, Z
    1508:	31 81       	ldd	r19, Z+1	; 0x01
    150a:	fc 01       	movw	r30, r24
    150c:	31 83       	std	Z+1, r19	; 0x01
    150e:	20 83       	st	Z, r18
    1510:	ce 01       	movw	r24, r28
    1512:	85 51       	subi	r24, 0x15	; 21
    1514:	9e 4f       	sbci	r25, 0xFE	; 254
    1516:	8c 5a       	subi	r24, 0xAC	; 172
    1518:	9f 4f       	sbci	r25, 0xFF	; 255
    151a:	9e 01       	movw	r18, r28
    151c:	21 5b       	subi	r18, 0xB1	; 177
    151e:	3f 4f       	sbci	r19, 0xFF	; 255
    1520:	f9 01       	movw	r30, r18
    1522:	20 81       	ld	r18, Z
    1524:	31 81       	ldd	r19, Z+1	; 0x01
    1526:	fc 01       	movw	r30, r24
    1528:	31 83       	std	Z+1, r19	; 0x01
    152a:	20 83       	st	Z, r18
    152c:	ce 01       	movw	r24, r28
    152e:	85 51       	subi	r24, 0x15	; 21
    1530:	9e 4f       	sbci	r25, 0xFE	; 254
    1532:	8a 5a       	subi	r24, 0xAA	; 170
    1534:	9f 4f       	sbci	r25, 0xFF	; 255
    1536:	9e 01       	movw	r18, r28
    1538:	21 5b       	subi	r18, 0xB1	; 177
    153a:	3f 4f       	sbci	r19, 0xFF	; 255
    153c:	f9 01       	movw	r30, r18
    153e:	20 81       	ld	r18, Z
    1540:	31 81       	ldd	r19, Z+1	; 0x01
    1542:	fc 01       	movw	r30, r24
    1544:	31 83       	std	Z+1, r19	; 0x01
    1546:	20 83       	st	Z, r18
    1548:	ce 01       	movw	r24, r28
    154a:	85 51       	subi	r24, 0x15	; 21
    154c:	9e 4f       	sbci	r25, 0xFE	; 254
    154e:	88 5a       	subi	r24, 0xA8	; 168
    1550:	9f 4f       	sbci	r25, 0xFF	; 255
    1552:	9e 01       	movw	r18, r28
    1554:	23 5b       	subi	r18, 0xB3	; 179
    1556:	3f 4f       	sbci	r19, 0xFF	; 255
    1558:	f9 01       	movw	r30, r18
    155a:	20 81       	ld	r18, Z
    155c:	31 81       	ldd	r19, Z+1	; 0x01
    155e:	fc 01       	movw	r30, r24
    1560:	31 83       	std	Z+1, r19	; 0x01
    1562:	20 83       	st	Z, r18
    1564:	ce 01       	movw	r24, r28
    1566:	85 51       	subi	r24, 0x15	; 21
    1568:	9e 4f       	sbci	r25, 0xFE	; 254
    156a:	86 5a       	subi	r24, 0xA6	; 166
    156c:	9f 4f       	sbci	r25, 0xFF	; 255
    156e:	9e 01       	movw	r18, r28
    1570:	21 5b       	subi	r18, 0xB1	; 177
    1572:	3f 4f       	sbci	r19, 0xFF	; 255
    1574:	f9 01       	movw	r30, r18
    1576:	20 81       	ld	r18, Z
    1578:	31 81       	ldd	r19, Z+1	; 0x01
    157a:	fc 01       	movw	r30, r24
    157c:	31 83       	std	Z+1, r19	; 0x01
    157e:	20 83       	st	Z, r18
    1580:	ce 01       	movw	r24, r28
    1582:	85 51       	subi	r24, 0x15	; 21
    1584:	9e 4f       	sbci	r25, 0xFE	; 254
    1586:	84 5a       	subi	r24, 0xA4	; 164
    1588:	9f 4f       	sbci	r25, 0xFF	; 255
    158a:	9e 01       	movw	r18, r28
    158c:	21 5b       	subi	r18, 0xB1	; 177
    158e:	3f 4f       	sbci	r19, 0xFF	; 255
    1590:	f9 01       	movw	r30, r18
    1592:	20 81       	ld	r18, Z
    1594:	31 81       	ldd	r19, Z+1	; 0x01
    1596:	fc 01       	movw	r30, r24
    1598:	31 83       	std	Z+1, r19	; 0x01
    159a:	20 83       	st	Z, r18
    159c:	ce 01       	movw	r24, r28
    159e:	85 51       	subi	r24, 0x15	; 21
    15a0:	9e 4f       	sbci	r25, 0xFE	; 254
    15a2:	82 5a       	subi	r24, 0xA2	; 162
    15a4:	9f 4f       	sbci	r25, 0xFF	; 255
    15a6:	9e 01       	movw	r18, r28
    15a8:	23 5b       	subi	r18, 0xB3	; 179
    15aa:	3f 4f       	sbci	r19, 0xFF	; 255
    15ac:	f9 01       	movw	r30, r18
    15ae:	20 81       	ld	r18, Z
    15b0:	31 81       	ldd	r19, Z+1	; 0x01
    15b2:	fc 01       	movw	r30, r24
    15b4:	31 83       	std	Z+1, r19	; 0x01
    15b6:	20 83       	st	Z, r18
    15b8:	ce 01       	movw	r24, r28
    15ba:	85 51       	subi	r24, 0x15	; 21
    15bc:	9e 4f       	sbci	r25, 0xFE	; 254
    15be:	80 5a       	subi	r24, 0xA0	; 160
    15c0:	9f 4f       	sbci	r25, 0xFF	; 255
    15c2:	9e 01       	movw	r18, r28
    15c4:	21 5b       	subi	r18, 0xB1	; 177
    15c6:	3f 4f       	sbci	r19, 0xFF	; 255
    15c8:	f9 01       	movw	r30, r18
    15ca:	20 81       	ld	r18, Z
    15cc:	31 81       	ldd	r19, Z+1	; 0x01
    15ce:	fc 01       	movw	r30, r24
    15d0:	31 83       	std	Z+1, r19	; 0x01
    15d2:	20 83       	st	Z, r18
    15d4:	ce 01       	movw	r24, r28
    15d6:	85 51       	subi	r24, 0x15	; 21
    15d8:	9e 4f       	sbci	r25, 0xFE	; 254
    15da:	8e 59       	subi	r24, 0x9E	; 158
    15dc:	9f 4f       	sbci	r25, 0xFF	; 255
    15de:	9e 01       	movw	r18, r28
    15e0:	21 5b       	subi	r18, 0xB1	; 177
    15e2:	3f 4f       	sbci	r19, 0xFF	; 255
    15e4:	f9 01       	movw	r30, r18
    15e6:	20 81       	ld	r18, Z
    15e8:	31 81       	ldd	r19, Z+1	; 0x01
    15ea:	fc 01       	movw	r30, r24
    15ec:	31 83       	std	Z+1, r19	; 0x01
    15ee:	20 83       	st	Z, r18
    15f0:	ce 01       	movw	r24, r28
    15f2:	85 51       	subi	r24, 0x15	; 21
    15f4:	9e 4f       	sbci	r25, 0xFE	; 254
    15f6:	8c 59       	subi	r24, 0x9C	; 156
    15f8:	9f 4f       	sbci	r25, 0xFF	; 255
    15fa:	9e 01       	movw	r18, r28
    15fc:	23 5b       	subi	r18, 0xB3	; 179
    15fe:	3f 4f       	sbci	r19, 0xFF	; 255
    1600:	f9 01       	movw	r30, r18
    1602:	20 81       	ld	r18, Z
    1604:	31 81       	ldd	r19, Z+1	; 0x01
    1606:	fc 01       	movw	r30, r24
    1608:	31 83       	std	Z+1, r19	; 0x01
    160a:	20 83       	st	Z, r18
    160c:	ce 01       	movw	r24, r28
    160e:	85 51       	subi	r24, 0x15	; 21
    1610:	9e 4f       	sbci	r25, 0xFE	; 254
    1612:	8a 59       	subi	r24, 0x9A	; 154
    1614:	9f 4f       	sbci	r25, 0xFF	; 255
    1616:	9e 01       	movw	r18, r28
    1618:	21 5b       	subi	r18, 0xB1	; 177
    161a:	3f 4f       	sbci	r19, 0xFF	; 255
    161c:	f9 01       	movw	r30, r18
    161e:	20 81       	ld	r18, Z
    1620:	31 81       	ldd	r19, Z+1	; 0x01
    1622:	fc 01       	movw	r30, r24
    1624:	31 83       	std	Z+1, r19	; 0x01
    1626:	20 83       	st	Z, r18
    1628:	ce 01       	movw	r24, r28
    162a:	85 51       	subi	r24, 0x15	; 21
    162c:	9e 4f       	sbci	r25, 0xFE	; 254
    162e:	88 59       	subi	r24, 0x98	; 152
    1630:	9f 4f       	sbci	r25, 0xFF	; 255
    1632:	9e 01       	movw	r18, r28
    1634:	21 5b       	subi	r18, 0xB1	; 177
    1636:	3f 4f       	sbci	r19, 0xFF	; 255
    1638:	f9 01       	movw	r30, r18
    163a:	20 81       	ld	r18, Z
    163c:	31 81       	ldd	r19, Z+1	; 0x01
    163e:	fc 01       	movw	r30, r24
    1640:	31 83       	std	Z+1, r19	; 0x01
    1642:	20 83       	st	Z, r18
    1644:	ce 01       	movw	r24, r28
    1646:	85 51       	subi	r24, 0x15	; 21
    1648:	9e 4f       	sbci	r25, 0xFE	; 254
    164a:	86 59       	subi	r24, 0x96	; 150
    164c:	9f 4f       	sbci	r25, 0xFF	; 255
    164e:	9e 01       	movw	r18, r28
    1650:	23 5b       	subi	r18, 0xB3	; 179
    1652:	3f 4f       	sbci	r19, 0xFF	; 255
    1654:	f9 01       	movw	r30, r18
    1656:	20 81       	ld	r18, Z
    1658:	31 81       	ldd	r19, Z+1	; 0x01
    165a:	fc 01       	movw	r30, r24
    165c:	31 83       	std	Z+1, r19	; 0x01
    165e:	20 83       	st	Z, r18
    1660:	ce 01       	movw	r24, r28
    1662:	85 51       	subi	r24, 0x15	; 21
    1664:	9e 4f       	sbci	r25, 0xFE	; 254
    1666:	84 59       	subi	r24, 0x94	; 148
    1668:	9f 4f       	sbci	r25, 0xFF	; 255
    166a:	9e 01       	movw	r18, r28
    166c:	21 5b       	subi	r18, 0xB1	; 177
    166e:	3f 4f       	sbci	r19, 0xFF	; 255
    1670:	f9 01       	movw	r30, r18
    1672:	20 81       	ld	r18, Z
    1674:	31 81       	ldd	r19, Z+1	; 0x01
    1676:	fc 01       	movw	r30, r24
    1678:	31 83       	std	Z+1, r19	; 0x01
    167a:	20 83       	st	Z, r18
    167c:	ce 01       	movw	r24, r28
    167e:	85 51       	subi	r24, 0x15	; 21
    1680:	9e 4f       	sbci	r25, 0xFE	; 254
    1682:	82 59       	subi	r24, 0x92	; 146
    1684:	9f 4f       	sbci	r25, 0xFF	; 255
    1686:	9e 01       	movw	r18, r28
    1688:	21 5b       	subi	r18, 0xB1	; 177
    168a:	3f 4f       	sbci	r19, 0xFF	; 255
    168c:	f9 01       	movw	r30, r18
    168e:	20 81       	ld	r18, Z
    1690:	31 81       	ldd	r19, Z+1	; 0x01
    1692:	fc 01       	movw	r30, r24
    1694:	31 83       	std	Z+1, r19	; 0x01
    1696:	20 83       	st	Z, r18
    1698:	ce 01       	movw	r24, r28
    169a:	85 51       	subi	r24, 0x15	; 21
    169c:	9e 4f       	sbci	r25, 0xFE	; 254
    169e:	80 59       	subi	r24, 0x90	; 144
    16a0:	9f 4f       	sbci	r25, 0xFF	; 255
    16a2:	9e 01       	movw	r18, r28
    16a4:	23 5b       	subi	r18, 0xB3	; 179
    16a6:	3f 4f       	sbci	r19, 0xFF	; 255
    16a8:	f9 01       	movw	r30, r18
    16aa:	20 81       	ld	r18, Z
    16ac:	31 81       	ldd	r19, Z+1	; 0x01
    16ae:	fc 01       	movw	r30, r24
    16b0:	31 83       	std	Z+1, r19	; 0x01
    16b2:	20 83       	st	Z, r18
    16b4:	ce 01       	movw	r24, r28
    16b6:	85 51       	subi	r24, 0x15	; 21
    16b8:	9e 4f       	sbci	r25, 0xFE	; 254
    16ba:	8e 58       	subi	r24, 0x8E	; 142
    16bc:	9f 4f       	sbci	r25, 0xFF	; 255
    16be:	9e 01       	movw	r18, r28
    16c0:	23 5b       	subi	r18, 0xB3	; 179
    16c2:	3f 4f       	sbci	r19, 0xFF	; 255
    16c4:	f9 01       	movw	r30, r18
    16c6:	20 81       	ld	r18, Z
    16c8:	31 81       	ldd	r19, Z+1	; 0x01
    16ca:	fc 01       	movw	r30, r24
    16cc:	31 83       	std	Z+1, r19	; 0x01
    16ce:	20 83       	st	Z, r18
    16d0:	ce 01       	movw	r24, r28
    16d2:	85 51       	subi	r24, 0x15	; 21
    16d4:	9e 4f       	sbci	r25, 0xFE	; 254
    16d6:	8c 58       	subi	r24, 0x8C	; 140
    16d8:	9f 4f       	sbci	r25, 0xFF	; 255
    16da:	9e 01       	movw	r18, r28
    16dc:	23 5b       	subi	r18, 0xB3	; 179
    16de:	3f 4f       	sbci	r19, 0xFF	; 255
    16e0:	f9 01       	movw	r30, r18
    16e2:	20 81       	ld	r18, Z
    16e4:	31 81       	ldd	r19, Z+1	; 0x01
    16e6:	fc 01       	movw	r30, r24
    16e8:	31 83       	std	Z+1, r19	; 0x01
    16ea:	20 83       	st	Z, r18
    16ec:	ce 01       	movw	r24, r28
    16ee:	85 51       	subi	r24, 0x15	; 21
    16f0:	9e 4f       	sbci	r25, 0xFE	; 254
    16f2:	8a 58       	subi	r24, 0x8A	; 138
    16f4:	9f 4f       	sbci	r25, 0xFF	; 255
    16f6:	9e 01       	movw	r18, r28
    16f8:	23 5b       	subi	r18, 0xB3	; 179
    16fa:	3f 4f       	sbci	r19, 0xFF	; 255
    16fc:	f9 01       	movw	r30, r18
    16fe:	20 81       	ld	r18, Z
    1700:	31 81       	ldd	r19, Z+1	; 0x01
    1702:	fc 01       	movw	r30, r24
    1704:	31 83       	std	Z+1, r19	; 0x01
    1706:	20 83       	st	Z, r18
    1708:	ce 01       	movw	r24, r28
    170a:	85 51       	subi	r24, 0x15	; 21
    170c:	9e 4f       	sbci	r25, 0xFE	; 254
    170e:	88 58       	subi	r24, 0x88	; 136
    1710:	9f 4f       	sbci	r25, 0xFF	; 255
    1712:	9e 01       	movw	r18, r28
    1714:	27 5b       	subi	r18, 0xB7	; 183
    1716:	3f 4f       	sbci	r19, 0xFF	; 255
    1718:	f9 01       	movw	r30, r18
    171a:	20 81       	ld	r18, Z
    171c:	31 81       	ldd	r19, Z+1	; 0x01
    171e:	fc 01       	movw	r30, r24
    1720:	31 83       	std	Z+1, r19	; 0x01
    1722:	20 83       	st	Z, r18
    1724:	ce 01       	movw	r24, r28
    1726:	85 51       	subi	r24, 0x15	; 21
    1728:	9e 4f       	sbci	r25, 0xFE	; 254
    172a:	86 58       	subi	r24, 0x86	; 134
    172c:	9f 4f       	sbci	r25, 0xFF	; 255
    172e:	9e 01       	movw	r18, r28
    1730:	21 5b       	subi	r18, 0xB1	; 177
    1732:	3f 4f       	sbci	r19, 0xFF	; 255
    1734:	f9 01       	movw	r30, r18
    1736:	20 81       	ld	r18, Z
    1738:	31 81       	ldd	r19, Z+1	; 0x01
    173a:	fc 01       	movw	r30, r24
    173c:	31 83       	std	Z+1, r19	; 0x01
    173e:	20 83       	st	Z, r18
    1740:	ce 01       	movw	r24, r28
    1742:	85 51       	subi	r24, 0x15	; 21
    1744:	9e 4f       	sbci	r25, 0xFE	; 254
    1746:	84 58       	subi	r24, 0x84	; 132
    1748:	9f 4f       	sbci	r25, 0xFF	; 255
    174a:	9e 01       	movw	r18, r28
    174c:	23 5b       	subi	r18, 0xB3	; 179
    174e:	3f 4f       	sbci	r19, 0xFF	; 255
    1750:	f9 01       	movw	r30, r18
    1752:	20 81       	ld	r18, Z
    1754:	31 81       	ldd	r19, Z+1	; 0x01
    1756:	fc 01       	movw	r30, r24
    1758:	31 83       	std	Z+1, r19	; 0x01
    175a:	20 83       	st	Z, r18
    175c:	ce 01       	movw	r24, r28
    175e:	85 51       	subi	r24, 0x15	; 21
    1760:	9e 4f       	sbci	r25, 0xFE	; 254
    1762:	82 58       	subi	r24, 0x82	; 130
    1764:	9f 4f       	sbci	r25, 0xFF	; 255
    1766:	9e 01       	movw	r18, r28
    1768:	21 5b       	subi	r18, 0xB1	; 177
    176a:	3f 4f       	sbci	r19, 0xFF	; 255
    176c:	f9 01       	movw	r30, r18
    176e:	20 81       	ld	r18, Z
    1770:	31 81       	ldd	r19, Z+1	; 0x01
    1772:	fc 01       	movw	r30, r24
    1774:	31 83       	std	Z+1, r19	; 0x01
    1776:	20 83       	st	Z, r18
    1778:	ce 01       	movw	r24, r28
    177a:	85 51       	subi	r24, 0x15	; 21
    177c:	9e 4f       	sbci	r25, 0xFE	; 254
    177e:	80 58       	subi	r24, 0x80	; 128
    1780:	9f 4f       	sbci	r25, 0xFF	; 255
    1782:	9e 01       	movw	r18, r28
    1784:	23 5b       	subi	r18, 0xB3	; 179
    1786:	3f 4f       	sbci	r19, 0xFF	; 255
    1788:	f9 01       	movw	r30, r18
    178a:	20 81       	ld	r18, Z
    178c:	31 81       	ldd	r19, Z+1	; 0x01
    178e:	fc 01       	movw	r30, r24
    1790:	31 83       	std	Z+1, r19	; 0x01
    1792:	20 83       	st	Z, r18
    1794:	ce 01       	movw	r24, r28
    1796:	85 51       	subi	r24, 0x15	; 21
    1798:	9e 4f       	sbci	r25, 0xFE	; 254
    179a:	8e 57       	subi	r24, 0x7E	; 126
    179c:	9f 4f       	sbci	r25, 0xFF	; 255
    179e:	9e 01       	movw	r18, r28
    17a0:	21 5b       	subi	r18, 0xB1	; 177
    17a2:	3f 4f       	sbci	r19, 0xFF	; 255
    17a4:	f9 01       	movw	r30, r18
    17a6:	20 81       	ld	r18, Z
    17a8:	31 81       	ldd	r19, Z+1	; 0x01
    17aa:	fc 01       	movw	r30, r24
    17ac:	31 83       	std	Z+1, r19	; 0x01
    17ae:	20 83       	st	Z, r18
    17b0:	ce 01       	movw	r24, r28
    17b2:	85 51       	subi	r24, 0x15	; 21
    17b4:	9e 4f       	sbci	r25, 0xFE	; 254
    17b6:	8c 57       	subi	r24, 0x7C	; 124
    17b8:	9f 4f       	sbci	r25, 0xFF	; 255
    17ba:	9e 01       	movw	r18, r28
    17bc:	21 5b       	subi	r18, 0xB1	; 177
    17be:	3f 4f       	sbci	r19, 0xFF	; 255
    17c0:	f9 01       	movw	r30, r18
    17c2:	20 81       	ld	r18, Z
    17c4:	31 81       	ldd	r19, Z+1	; 0x01
    17c6:	fc 01       	movw	r30, r24
    17c8:	31 83       	std	Z+1, r19	; 0x01
    17ca:	20 83       	st	Z, r18
    17cc:	ce 01       	movw	r24, r28
    17ce:	85 51       	subi	r24, 0x15	; 21
    17d0:	9e 4f       	sbci	r25, 0xFE	; 254
    17d2:	8a 57       	subi	r24, 0x7A	; 122
    17d4:	9f 4f       	sbci	r25, 0xFF	; 255
    17d6:	9e 01       	movw	r18, r28
    17d8:	23 5b       	subi	r18, 0xB3	; 179
    17da:	3f 4f       	sbci	r19, 0xFF	; 255
    17dc:	f9 01       	movw	r30, r18
    17de:	20 81       	ld	r18, Z
    17e0:	31 81       	ldd	r19, Z+1	; 0x01
    17e2:	fc 01       	movw	r30, r24
    17e4:	31 83       	std	Z+1, r19	; 0x01
    17e6:	20 83       	st	Z, r18
    17e8:	ce 01       	movw	r24, r28
    17ea:	85 51       	subi	r24, 0x15	; 21
    17ec:	9e 4f       	sbci	r25, 0xFE	; 254
    17ee:	88 57       	subi	r24, 0x78	; 120
    17f0:	9f 4f       	sbci	r25, 0xFF	; 255
    17f2:	9e 01       	movw	r18, r28
    17f4:	21 5b       	subi	r18, 0xB1	; 177
    17f6:	3f 4f       	sbci	r19, 0xFF	; 255
    17f8:	f9 01       	movw	r30, r18
    17fa:	20 81       	ld	r18, Z
    17fc:	31 81       	ldd	r19, Z+1	; 0x01
    17fe:	fc 01       	movw	r30, r24
    1800:	31 83       	std	Z+1, r19	; 0x01
    1802:	20 83       	st	Z, r18
    1804:	ce 01       	movw	r24, r28
    1806:	85 51       	subi	r24, 0x15	; 21
    1808:	9e 4f       	sbci	r25, 0xFE	; 254
    180a:	86 57       	subi	r24, 0x76	; 118
    180c:	9f 4f       	sbci	r25, 0xFF	; 255
    180e:	9e 01       	movw	r18, r28
    1810:	21 5b       	subi	r18, 0xB1	; 177
    1812:	3f 4f       	sbci	r19, 0xFF	; 255
    1814:	f9 01       	movw	r30, r18
    1816:	20 81       	ld	r18, Z
    1818:	31 81       	ldd	r19, Z+1	; 0x01
    181a:	fc 01       	movw	r30, r24
    181c:	31 83       	std	Z+1, r19	; 0x01
    181e:	20 83       	st	Z, r18
    1820:	ce 01       	movw	r24, r28
    1822:	85 51       	subi	r24, 0x15	; 21
    1824:	9e 4f       	sbci	r25, 0xFE	; 254
    1826:	84 57       	subi	r24, 0x74	; 116
    1828:	9f 4f       	sbci	r25, 0xFF	; 255
    182a:	9e 01       	movw	r18, r28
    182c:	23 5b       	subi	r18, 0xB3	; 179
    182e:	3f 4f       	sbci	r19, 0xFF	; 255
    1830:	f9 01       	movw	r30, r18
    1832:	20 81       	ld	r18, Z
    1834:	31 81       	ldd	r19, Z+1	; 0x01
    1836:	fc 01       	movw	r30, r24
    1838:	31 83       	std	Z+1, r19	; 0x01
    183a:	20 83       	st	Z, r18
    183c:	ce 01       	movw	r24, r28
    183e:	85 51       	subi	r24, 0x15	; 21
    1840:	9e 4f       	sbci	r25, 0xFE	; 254
    1842:	82 57       	subi	r24, 0x72	; 114
    1844:	9f 4f       	sbci	r25, 0xFF	; 255
    1846:	9e 01       	movw	r18, r28
    1848:	21 5b       	subi	r18, 0xB1	; 177
    184a:	3f 4f       	sbci	r19, 0xFF	; 255
    184c:	f9 01       	movw	r30, r18
    184e:	20 81       	ld	r18, Z
    1850:	31 81       	ldd	r19, Z+1	; 0x01
    1852:	fc 01       	movw	r30, r24
    1854:	31 83       	std	Z+1, r19	; 0x01
    1856:	20 83       	st	Z, r18
    1858:	ce 01       	movw	r24, r28
    185a:	85 51       	subi	r24, 0x15	; 21
    185c:	9e 4f       	sbci	r25, 0xFE	; 254
    185e:	80 57       	subi	r24, 0x70	; 112
    1860:	9f 4f       	sbci	r25, 0xFF	; 255
    1862:	9e 01       	movw	r18, r28
    1864:	21 5b       	subi	r18, 0xB1	; 177
    1866:	3f 4f       	sbci	r19, 0xFF	; 255
    1868:	f9 01       	movw	r30, r18
    186a:	20 81       	ld	r18, Z
    186c:	31 81       	ldd	r19, Z+1	; 0x01
    186e:	fc 01       	movw	r30, r24
    1870:	31 83       	std	Z+1, r19	; 0x01
    1872:	20 83       	st	Z, r18
    1874:	ce 01       	movw	r24, r28
    1876:	85 51       	subi	r24, 0x15	; 21
    1878:	9e 4f       	sbci	r25, 0xFE	; 254
    187a:	8e 56       	subi	r24, 0x6E	; 110
    187c:	9f 4f       	sbci	r25, 0xFF	; 255
    187e:	9e 01       	movw	r18, r28
    1880:	23 5b       	subi	r18, 0xB3	; 179
    1882:	3f 4f       	sbci	r19, 0xFF	; 255
    1884:	f9 01       	movw	r30, r18
    1886:	20 81       	ld	r18, Z
    1888:	31 81       	ldd	r19, Z+1	; 0x01
    188a:	fc 01       	movw	r30, r24
    188c:	31 83       	std	Z+1, r19	; 0x01
    188e:	20 83       	st	Z, r18
    1890:	ce 01       	movw	r24, r28
    1892:	85 51       	subi	r24, 0x15	; 21
    1894:	9e 4f       	sbci	r25, 0xFE	; 254
    1896:	8c 56       	subi	r24, 0x6C	; 108
    1898:	9f 4f       	sbci	r25, 0xFF	; 255
    189a:	9e 01       	movw	r18, r28
    189c:	21 5b       	subi	r18, 0xB1	; 177
    189e:	3f 4f       	sbci	r19, 0xFF	; 255
    18a0:	f9 01       	movw	r30, r18
    18a2:	20 81       	ld	r18, Z
    18a4:	31 81       	ldd	r19, Z+1	; 0x01
    18a6:	fc 01       	movw	r30, r24
    18a8:	31 83       	std	Z+1, r19	; 0x01
    18aa:	20 83       	st	Z, r18
    18ac:	ce 01       	movw	r24, r28
    18ae:	85 51       	subi	r24, 0x15	; 21
    18b0:	9e 4f       	sbci	r25, 0xFE	; 254
    18b2:	8a 56       	subi	r24, 0x6A	; 106
    18b4:	9f 4f       	sbci	r25, 0xFF	; 255
    18b6:	9e 01       	movw	r18, r28
    18b8:	21 5b       	subi	r18, 0xB1	; 177
    18ba:	3f 4f       	sbci	r19, 0xFF	; 255
    18bc:	f9 01       	movw	r30, r18
    18be:	20 81       	ld	r18, Z
    18c0:	31 81       	ldd	r19, Z+1	; 0x01
    18c2:	fc 01       	movw	r30, r24
    18c4:	31 83       	std	Z+1, r19	; 0x01
    18c6:	20 83       	st	Z, r18
    18c8:	ce 01       	movw	r24, r28
    18ca:	85 51       	subi	r24, 0x15	; 21
    18cc:	9e 4f       	sbci	r25, 0xFE	; 254
    18ce:	88 56       	subi	r24, 0x68	; 104
    18d0:	9f 4f       	sbci	r25, 0xFF	; 255
    18d2:	9e 01       	movw	r18, r28
    18d4:	23 5b       	subi	r18, 0xB3	; 179
    18d6:	3f 4f       	sbci	r19, 0xFF	; 255
    18d8:	f9 01       	movw	r30, r18
    18da:	20 81       	ld	r18, Z
    18dc:	31 81       	ldd	r19, Z+1	; 0x01
    18de:	fc 01       	movw	r30, r24
    18e0:	31 83       	std	Z+1, r19	; 0x01
    18e2:	20 83       	st	Z, r18
    18e4:	ce 01       	movw	r24, r28
    18e6:	85 51       	subi	r24, 0x15	; 21
    18e8:	9e 4f       	sbci	r25, 0xFE	; 254
    18ea:	86 56       	subi	r24, 0x66	; 102
    18ec:	9f 4f       	sbci	r25, 0xFF	; 255
    18ee:	9e 01       	movw	r18, r28
    18f0:	23 5b       	subi	r18, 0xB3	; 179
    18f2:	3f 4f       	sbci	r19, 0xFF	; 255
    18f4:	f9 01       	movw	r30, r18
    18f6:	20 81       	ld	r18, Z
    18f8:	31 81       	ldd	r19, Z+1	; 0x01
    18fa:	fc 01       	movw	r30, r24
    18fc:	31 83       	std	Z+1, r19	; 0x01
    18fe:	20 83       	st	Z, r18
    1900:	ce 01       	movw	r24, r28
    1902:	85 51       	subi	r24, 0x15	; 21
    1904:	9e 4f       	sbci	r25, 0xFE	; 254
    1906:	84 56       	subi	r24, 0x64	; 100
    1908:	9f 4f       	sbci	r25, 0xFF	; 255
    190a:	9e 01       	movw	r18, r28
    190c:	23 5b       	subi	r18, 0xB3	; 179
    190e:	3f 4f       	sbci	r19, 0xFF	; 255
    1910:	f9 01       	movw	r30, r18
    1912:	20 81       	ld	r18, Z
    1914:	31 81       	ldd	r19, Z+1	; 0x01
    1916:	fc 01       	movw	r30, r24
    1918:	31 83       	std	Z+1, r19	; 0x01
    191a:	20 83       	st	Z, r18
    191c:	ce 01       	movw	r24, r28
    191e:	85 51       	subi	r24, 0x15	; 21
    1920:	9e 4f       	sbci	r25, 0xFE	; 254
    1922:	82 56       	subi	r24, 0x62	; 98
    1924:	9f 4f       	sbci	r25, 0xFF	; 255
    1926:	9e 01       	movw	r18, r28
    1928:	23 5b       	subi	r18, 0xB3	; 179
    192a:	3f 4f       	sbci	r19, 0xFF	; 255
    192c:	f9 01       	movw	r30, r18
    192e:	20 81       	ld	r18, Z
    1930:	31 81       	ldd	r19, Z+1	; 0x01
    1932:	fc 01       	movw	r30, r24
    1934:	31 83       	std	Z+1, r19	; 0x01
    1936:	20 83       	st	Z, r18
    1938:	ce 01       	movw	r24, r28
    193a:	85 51       	subi	r24, 0x15	; 21
    193c:	9e 4f       	sbci	r25, 0xFE	; 254
    193e:	80 56       	subi	r24, 0x60	; 96
    1940:	9f 4f       	sbci	r25, 0xFF	; 255
    1942:	9e 01       	movw	r18, r28
    1944:	23 5b       	subi	r18, 0xB3	; 179
    1946:	3f 4f       	sbci	r19, 0xFF	; 255
    1948:	f9 01       	movw	r30, r18
    194a:	20 81       	ld	r18, Z
    194c:	31 81       	ldd	r19, Z+1	; 0x01
    194e:	fc 01       	movw	r30, r24
    1950:	31 83       	std	Z+1, r19	; 0x01
    1952:	20 83       	st	Z, r18
    1954:	ce 01       	movw	r24, r28
    1956:	85 51       	subi	r24, 0x15	; 21
    1958:	9e 4f       	sbci	r25, 0xFE	; 254
    195a:	8e 55       	subi	r24, 0x5E	; 94
    195c:	9f 4f       	sbci	r25, 0xFF	; 255
    195e:	9e 01       	movw	r18, r28
    1960:	23 5b       	subi	r18, 0xB3	; 179
    1962:	3f 4f       	sbci	r19, 0xFF	; 255
    1964:	f9 01       	movw	r30, r18
    1966:	20 81       	ld	r18, Z
    1968:	31 81       	ldd	r19, Z+1	; 0x01
    196a:	fc 01       	movw	r30, r24
    196c:	31 83       	std	Z+1, r19	; 0x01
    196e:	20 83       	st	Z, r18
    1970:	ce 01       	movw	r24, r28
    1972:	85 51       	subi	r24, 0x15	; 21
    1974:	9e 4f       	sbci	r25, 0xFE	; 254
    1976:	8c 55       	subi	r24, 0x5C	; 92
    1978:	9f 4f       	sbci	r25, 0xFF	; 255
    197a:	9e 01       	movw	r18, r28
    197c:	27 5b       	subi	r18, 0xB7	; 183
    197e:	3f 4f       	sbci	r19, 0xFF	; 255
    1980:	f9 01       	movw	r30, r18
    1982:	20 81       	ld	r18, Z
    1984:	31 81       	ldd	r19, Z+1	; 0x01
    1986:	fc 01       	movw	r30, r24
    1988:	31 83       	std	Z+1, r19	; 0x01
    198a:	20 83       	st	Z, r18
    198c:	ce 01       	movw	r24, r28
    198e:	85 51       	subi	r24, 0x15	; 21
    1990:	9e 4f       	sbci	r25, 0xFE	; 254
    1992:	8a 55       	subi	r24, 0x5A	; 90
    1994:	9f 4f       	sbci	r25, 0xFF	; 255
    1996:	9e 01       	movw	r18, r28
    1998:	27 5b       	subi	r18, 0xB7	; 183
    199a:	3f 4f       	sbci	r19, 0xFF	; 255
    199c:	f9 01       	movw	r30, r18
    199e:	20 81       	ld	r18, Z
    19a0:	31 81       	ldd	r19, Z+1	; 0x01
    19a2:	fc 01       	movw	r30, r24
    19a4:	31 83       	std	Z+1, r19	; 0x01
    19a6:	20 83       	st	Z, r18
    19a8:	ce 01       	movw	r24, r28
    19aa:	85 51       	subi	r24, 0x15	; 21
    19ac:	9e 4f       	sbci	r25, 0xFE	; 254
    19ae:	88 55       	subi	r24, 0x58	; 88
    19b0:	9f 4f       	sbci	r25, 0xFF	; 255
    19b2:	9e 01       	movw	r18, r28
    19b4:	27 5b       	subi	r18, 0xB7	; 183
    19b6:	3f 4f       	sbci	r19, 0xFF	; 255
    19b8:	f9 01       	movw	r30, r18
    19ba:	20 81       	ld	r18, Z
    19bc:	31 81       	ldd	r19, Z+1	; 0x01
    19be:	fc 01       	movw	r30, r24
    19c0:	31 83       	std	Z+1, r19	; 0x01
    19c2:	20 83       	st	Z, r18
    19c4:	ce 01       	movw	r24, r28
    19c6:	85 51       	subi	r24, 0x15	; 21
    19c8:	9e 4f       	sbci	r25, 0xFE	; 254
    19ca:	86 55       	subi	r24, 0x56	; 86
    19cc:	9f 4f       	sbci	r25, 0xFF	; 255
    19ce:	9e 01       	movw	r18, r28
    19d0:	27 5b       	subi	r18, 0xB7	; 183
    19d2:	3f 4f       	sbci	r19, 0xFF	; 255
    19d4:	f9 01       	movw	r30, r18
    19d6:	20 81       	ld	r18, Z
    19d8:	31 81       	ldd	r19, Z+1	; 0x01
    19da:	fc 01       	movw	r30, r24
    19dc:	31 83       	std	Z+1, r19	; 0x01
    19de:	20 83       	st	Z, r18
    19e0:	ce 01       	movw	r24, r28
    19e2:	85 51       	subi	r24, 0x15	; 21
    19e4:	9e 4f       	sbci	r25, 0xFE	; 254
    19e6:	84 55       	subi	r24, 0x54	; 84
    19e8:	9f 4f       	sbci	r25, 0xFF	; 255
    19ea:	9e 01       	movw	r18, r28
    19ec:	27 5b       	subi	r18, 0xB7	; 183
    19ee:	3f 4f       	sbci	r19, 0xFF	; 255
    19f0:	f9 01       	movw	r30, r18
    19f2:	20 81       	ld	r18, Z
    19f4:	31 81       	ldd	r19, Z+1	; 0x01
    19f6:	fc 01       	movw	r30, r24
    19f8:	31 83       	std	Z+1, r19	; 0x01
    19fa:	20 83       	st	Z, r18
    19fc:	ce 01       	movw	r24, r28
    19fe:	85 51       	subi	r24, 0x15	; 21
    1a00:	9e 4f       	sbci	r25, 0xFE	; 254
    1a02:	82 55       	subi	r24, 0x52	; 82
    1a04:	9f 4f       	sbci	r25, 0xFF	; 255
    1a06:	9e 01       	movw	r18, r28
    1a08:	27 5b       	subi	r18, 0xB7	; 183
    1a0a:	3f 4f       	sbci	r19, 0xFF	; 255
    1a0c:	f9 01       	movw	r30, r18
    1a0e:	20 81       	ld	r18, Z
    1a10:	31 81       	ldd	r19, Z+1	; 0x01
    1a12:	fc 01       	movw	r30, r24
    1a14:	31 83       	std	Z+1, r19	; 0x01
    1a16:	20 83       	st	Z, r18
    1a18:	ce 01       	movw	r24, r28
    1a1a:	85 51       	subi	r24, 0x15	; 21
    1a1c:	9e 4f       	sbci	r25, 0xFE	; 254
    1a1e:	80 55       	subi	r24, 0x50	; 80
    1a20:	9f 4f       	sbci	r25, 0xFF	; 255
    1a22:	9e 01       	movw	r18, r28
    1a24:	23 5b       	subi	r18, 0xB3	; 179
    1a26:	3f 4f       	sbci	r19, 0xFF	; 255
    1a28:	f9 01       	movw	r30, r18
    1a2a:	20 81       	ld	r18, Z
    1a2c:	31 81       	ldd	r19, Z+1	; 0x01
    1a2e:	fc 01       	movw	r30, r24
    1a30:	31 83       	std	Z+1, r19	; 0x01
    1a32:	20 83       	st	Z, r18
    1a34:	ce 01       	movw	r24, r28
    1a36:	85 51       	subi	r24, 0x15	; 21
    1a38:	9e 4f       	sbci	r25, 0xFE	; 254
    1a3a:	8e 54       	subi	r24, 0x4E	; 78
    1a3c:	9f 4f       	sbci	r25, 0xFF	; 255
    1a3e:	9e 01       	movw	r18, r28
    1a40:	23 5b       	subi	r18, 0xB3	; 179
    1a42:	3f 4f       	sbci	r19, 0xFF	; 255
    1a44:	f9 01       	movw	r30, r18
    1a46:	20 81       	ld	r18, Z
    1a48:	31 81       	ldd	r19, Z+1	; 0x01
    1a4a:	fc 01       	movw	r30, r24
    1a4c:	31 83       	std	Z+1, r19	; 0x01
    1a4e:	20 83       	st	Z, r18
    1a50:	ce 01       	movw	r24, r28
    1a52:	85 51       	subi	r24, 0x15	; 21
    1a54:	9e 4f       	sbci	r25, 0xFE	; 254
    1a56:	8c 54       	subi	r24, 0x4C	; 76
    1a58:	9f 4f       	sbci	r25, 0xFF	; 255
    1a5a:	9e 01       	movw	r18, r28
    1a5c:	23 5b       	subi	r18, 0xB3	; 179
    1a5e:	3f 4f       	sbci	r19, 0xFF	; 255
    1a60:	f9 01       	movw	r30, r18
    1a62:	20 81       	ld	r18, Z
    1a64:	31 81       	ldd	r19, Z+1	; 0x01
    1a66:	fc 01       	movw	r30, r24
    1a68:	31 83       	std	Z+1, r19	; 0x01
    1a6a:	20 83       	st	Z, r18
    1a6c:	ce 01       	movw	r24, r28
    1a6e:	85 51       	subi	r24, 0x15	; 21
    1a70:	9e 4f       	sbci	r25, 0xFE	; 254
    1a72:	8a 54       	subi	r24, 0x4A	; 74
    1a74:	9f 4f       	sbci	r25, 0xFF	; 255
    1a76:	9e 01       	movw	r18, r28
    1a78:	23 5b       	subi	r18, 0xB3	; 179
    1a7a:	3f 4f       	sbci	r19, 0xFF	; 255
    1a7c:	f9 01       	movw	r30, r18
    1a7e:	20 81       	ld	r18, Z
    1a80:	31 81       	ldd	r19, Z+1	; 0x01
    1a82:	fc 01       	movw	r30, r24
    1a84:	31 83       	std	Z+1, r19	; 0x01
    1a86:	20 83       	st	Z, r18
    1a88:	ce 01       	movw	r24, r28
    1a8a:	85 51       	subi	r24, 0x15	; 21
    1a8c:	9e 4f       	sbci	r25, 0xFE	; 254
    1a8e:	88 54       	subi	r24, 0x48	; 72
    1a90:	9f 4f       	sbci	r25, 0xFF	; 255
    1a92:	9e 01       	movw	r18, r28
    1a94:	27 5b       	subi	r18, 0xB7	; 183
    1a96:	3f 4f       	sbci	r19, 0xFF	; 255
    1a98:	f9 01       	movw	r30, r18
    1a9a:	20 81       	ld	r18, Z
    1a9c:	31 81       	ldd	r19, Z+1	; 0x01
    1a9e:	fc 01       	movw	r30, r24
    1aa0:	31 83       	std	Z+1, r19	; 0x01
    1aa2:	20 83       	st	Z, r18
    1aa4:	ce 01       	movw	r24, r28
    1aa6:	85 51       	subi	r24, 0x15	; 21
    1aa8:	9e 4f       	sbci	r25, 0xFE	; 254
    1aaa:	86 54       	subi	r24, 0x46	; 70
    1aac:	9f 4f       	sbci	r25, 0xFF	; 255
    1aae:	9e 01       	movw	r18, r28
    1ab0:	27 5b       	subi	r18, 0xB7	; 183
    1ab2:	3f 4f       	sbci	r19, 0xFF	; 255
    1ab4:	f9 01       	movw	r30, r18
    1ab6:	20 81       	ld	r18, Z
    1ab8:	31 81       	ldd	r19, Z+1	; 0x01
    1aba:	fc 01       	movw	r30, r24
    1abc:	31 83       	std	Z+1, r19	; 0x01
    1abe:	20 83       	st	Z, r18
    1ac0:	ce 01       	movw	r24, r28
    1ac2:	85 51       	subi	r24, 0x15	; 21
    1ac4:	9e 4f       	sbci	r25, 0xFE	; 254
    1ac6:	84 54       	subi	r24, 0x44	; 68
    1ac8:	9f 4f       	sbci	r25, 0xFF	; 255
    1aca:	9e 01       	movw	r18, r28
    1acc:	27 5b       	subi	r18, 0xB7	; 183
    1ace:	3f 4f       	sbci	r19, 0xFF	; 255
    1ad0:	f9 01       	movw	r30, r18
    1ad2:	20 81       	ld	r18, Z
    1ad4:	31 81       	ldd	r19, Z+1	; 0x01
    1ad6:	fc 01       	movw	r30, r24
    1ad8:	31 83       	std	Z+1, r19	; 0x01
    1ada:	20 83       	st	Z, r18
    1adc:	ce 01       	movw	r24, r28
    1ade:	85 51       	subi	r24, 0x15	; 21
    1ae0:	9e 4f       	sbci	r25, 0xFE	; 254
    1ae2:	82 54       	subi	r24, 0x42	; 66
    1ae4:	9f 4f       	sbci	r25, 0xFF	; 255
    1ae6:	9e 01       	movw	r18, r28
    1ae8:	27 5b       	subi	r18, 0xB7	; 183
    1aea:	3f 4f       	sbci	r19, 0xFF	; 255
    1aec:	f9 01       	movw	r30, r18
    1aee:	20 81       	ld	r18, Z
    1af0:	31 81       	ldd	r19, Z+1	; 0x01
    1af2:	fc 01       	movw	r30, r24
    1af4:	31 83       	std	Z+1, r19	; 0x01
    1af6:	20 83       	st	Z, r18
    1af8:	ce 01       	movw	r24, r28
    1afa:	85 51       	subi	r24, 0x15	; 21
    1afc:	9e 4f       	sbci	r25, 0xFE	; 254
    1afe:	80 54       	subi	r24, 0x40	; 64
    1b00:	9f 4f       	sbci	r25, 0xFF	; 255
    1b02:	9e 01       	movw	r18, r28
    1b04:	27 5b       	subi	r18, 0xB7	; 183
    1b06:	3f 4f       	sbci	r19, 0xFF	; 255
    1b08:	f9 01       	movw	r30, r18
    1b0a:	20 81       	ld	r18, Z
    1b0c:	31 81       	ldd	r19, Z+1	; 0x01
    1b0e:	fc 01       	movw	r30, r24
    1b10:	31 83       	std	Z+1, r19	; 0x01
    1b12:	20 83       	st	Z, r18
    1b14:	ce 01       	movw	r24, r28
    1b16:	85 51       	subi	r24, 0x15	; 21
    1b18:	9e 4f       	sbci	r25, 0xFE	; 254
    1b1a:	8e 53       	subi	r24, 0x3E	; 62
    1b1c:	9f 4f       	sbci	r25, 0xFF	; 255
    1b1e:	9e 01       	movw	r18, r28
    1b20:	27 5b       	subi	r18, 0xB7	; 183
    1b22:	3f 4f       	sbci	r19, 0xFF	; 255
    1b24:	f9 01       	movw	r30, r18
    1b26:	20 81       	ld	r18, Z
    1b28:	31 81       	ldd	r19, Z+1	; 0x01
    1b2a:	fc 01       	movw	r30, r24
    1b2c:	31 83       	std	Z+1, r19	; 0x01
    1b2e:	20 83       	st	Z, r18
    1b30:	ce 01       	movw	r24, r28
    1b32:	85 51       	subi	r24, 0x15	; 21
    1b34:	9e 4f       	sbci	r25, 0xFE	; 254
    1b36:	8c 53       	subi	r24, 0x3C	; 60
    1b38:	9f 4f       	sbci	r25, 0xFF	; 255
    1b3a:	9e 01       	movw	r18, r28
    1b3c:	23 5b       	subi	r18, 0xB3	; 179
    1b3e:	3f 4f       	sbci	r19, 0xFF	; 255
    1b40:	f9 01       	movw	r30, r18
    1b42:	20 81       	ld	r18, Z
    1b44:	31 81       	ldd	r19, Z+1	; 0x01
    1b46:	fc 01       	movw	r30, r24
    1b48:	31 83       	std	Z+1, r19	; 0x01
    1b4a:	20 83       	st	Z, r18
    1b4c:	ce 01       	movw	r24, r28
    1b4e:	85 51       	subi	r24, 0x15	; 21
    1b50:	9e 4f       	sbci	r25, 0xFE	; 254
    1b52:	8a 53       	subi	r24, 0x3A	; 58
    1b54:	9f 4f       	sbci	r25, 0xFF	; 255
    1b56:	9e 01       	movw	r18, r28
    1b58:	23 5b       	subi	r18, 0xB3	; 179
    1b5a:	3f 4f       	sbci	r19, 0xFF	; 255
    1b5c:	f9 01       	movw	r30, r18
    1b5e:	20 81       	ld	r18, Z
    1b60:	31 81       	ldd	r19, Z+1	; 0x01
    1b62:	fc 01       	movw	r30, r24
    1b64:	31 83       	std	Z+1, r19	; 0x01
    1b66:	20 83       	st	Z, r18
    1b68:	ce 01       	movw	r24, r28
    1b6a:	85 51       	subi	r24, 0x15	; 21
    1b6c:	9e 4f       	sbci	r25, 0xFE	; 254
    1b6e:	88 53       	subi	r24, 0x38	; 56
    1b70:	9f 4f       	sbci	r25, 0xFF	; 255
    1b72:	9e 01       	movw	r18, r28
    1b74:	23 5b       	subi	r18, 0xB3	; 179
    1b76:	3f 4f       	sbci	r19, 0xFF	; 255
    1b78:	f9 01       	movw	r30, r18
    1b7a:	20 81       	ld	r18, Z
    1b7c:	31 81       	ldd	r19, Z+1	; 0x01
    1b7e:	fc 01       	movw	r30, r24
    1b80:	31 83       	std	Z+1, r19	; 0x01
    1b82:	20 83       	st	Z, r18
    1b84:	ce 01       	movw	r24, r28
    1b86:	85 51       	subi	r24, 0x15	; 21
    1b88:	9e 4f       	sbci	r25, 0xFE	; 254
    1b8a:	86 53       	subi	r24, 0x36	; 54
    1b8c:	9f 4f       	sbci	r25, 0xFF	; 255
    1b8e:	9e 01       	movw	r18, r28
    1b90:	23 5b       	subi	r18, 0xB3	; 179
    1b92:	3f 4f       	sbci	r19, 0xFF	; 255
    1b94:	f9 01       	movw	r30, r18
    1b96:	20 81       	ld	r18, Z
    1b98:	31 81       	ldd	r19, Z+1	; 0x01
    1b9a:	fc 01       	movw	r30, r24
    1b9c:	31 83       	std	Z+1, r19	; 0x01
    1b9e:	20 83       	st	Z, r18

		whole, whole, whole, whole, whole, whole,
		half, half, half, half

	};
	const short length = 102;//122;
    1ba0:	ce 01       	movw	r24, r28
    1ba2:	8f 5a       	subi	r24, 0xAF	; 175
    1ba4:	9f 4f       	sbci	r25, 0xFF	; 255
    1ba6:	26 e6       	ldi	r18, 0x66	; 102
    1ba8:	30 e0       	ldi	r19, 0x00	; 0
    1baa:	fc 01       	movw	r30, r24
    1bac:	31 83       	std	Z+1, r19	; 0x01
    1bae:	20 83       	st	Z, r18


	static short time = 0;
	static short note = -1;
	if(--time > 0)
    1bb0:	80 91 0f 01 	lds	r24, 0x010F	; 0x80010f <time.1902>
    1bb4:	90 91 10 01 	lds	r25, 0x0110	; 0x800110 <time.1902+0x1>
    1bb8:	01 97       	sbiw	r24, 0x01	; 1
    1bba:	90 93 10 01 	sts	0x0110, r25	; 0x800110 <time.1902+0x1>
    1bbe:	80 93 0f 01 	sts	0x010F, r24	; 0x80010f <time.1902>
    1bc2:	80 91 0f 01 	lds	r24, 0x010F	; 0x80010f <time.1902>
    1bc6:	90 91 10 01 	lds	r25, 0x0110	; 0x800110 <time.1902+0x1>
    1bca:	18 16       	cp	r1, r24
    1bcc:	19 06       	cpc	r1, r25
    1bce:	0c f4       	brge	.+2      	; 0x1bd2 <__LOCK_REGION_LENGTH__+0x17d2>
    1bd0:	43 c0       	rjmp	.+134    	; 0x1c58 <__LOCK_REGION_LENGTH__+0x1858>
		return;
	if(++note >= length)
    1bd2:	80 91 04 01 	lds	r24, 0x0104	; 0x800104 <note.1903>
    1bd6:	90 91 05 01 	lds	r25, 0x0105	; 0x800105 <note.1903+0x1>
    1bda:	01 96       	adiw	r24, 0x01	; 1
    1bdc:	90 93 05 01 	sts	0x0105, r25	; 0x800105 <note.1903+0x1>
    1be0:	80 93 04 01 	sts	0x0104, r24	; 0x800104 <note.1903>
    1be4:	20 91 04 01 	lds	r18, 0x0104	; 0x800104 <note.1903>
    1be8:	30 91 05 01 	lds	r19, 0x0105	; 0x800105 <note.1903+0x1>
    1bec:	ce 01       	movw	r24, r28
    1bee:	8f 5a       	subi	r24, 0xAF	; 175
    1bf0:	9f 4f       	sbci	r25, 0xFF	; 255
    1bf2:	fc 01       	movw	r30, r24
    1bf4:	80 81       	ld	r24, Z
    1bf6:	91 81       	ldd	r25, Z+1	; 0x01
    1bf8:	28 17       	cp	r18, r24
    1bfa:	39 07       	cpc	r19, r25
    1bfc:	24 f0       	brlt	.+8      	; 0x1c06 <__LOCK_REGION_LENGTH__+0x1806>
		note = 0;
    1bfe:	10 92 05 01 	sts	0x0105, r1	; 0x800105 <note.1903+0x1>
    1c02:	10 92 04 01 	sts	0x0104, r1	; 0x800104 <note.1903>

	set_PWM(notes[note]);
    1c06:	80 91 04 01 	lds	r24, 0x0104	; 0x800104 <note.1903>
    1c0a:	90 91 05 01 	lds	r25, 0x0105	; 0x800105 <note.1903+0x1>
    1c0e:	9e 01       	movw	r18, r28
    1c10:	2d 5a       	subi	r18, 0xAD	; 173
    1c12:	3f 4f       	sbci	r19, 0xFF	; 255
    1c14:	88 0f       	add	r24, r24
    1c16:	99 1f       	adc	r25, r25
    1c18:	88 0f       	add	r24, r24
    1c1a:	99 1f       	adc	r25, r25
    1c1c:	82 0f       	add	r24, r18
    1c1e:	93 1f       	adc	r25, r19
    1c20:	fc 01       	movw	r30, r24
    1c22:	80 81       	ld	r24, Z
    1c24:	91 81       	ldd	r25, Z+1	; 0x01
    1c26:	a2 81       	ldd	r26, Z+2	; 0x02
    1c28:	b3 81       	ldd	r27, Z+3	; 0x03
    1c2a:	bc 01       	movw	r22, r24
    1c2c:	cd 01       	movw	r24, r26
    1c2e:	0e 94 37 01 	call	0x26e	; 0x26e <set_PWM>
	time = times[note];
    1c32:	80 91 04 01 	lds	r24, 0x0104	; 0x800104 <note.1903>
    1c36:	90 91 05 01 	lds	r25, 0x0105	; 0x800105 <note.1903+0x1>
    1c3a:	9e 01       	movw	r18, r28
    1c3c:	25 51       	subi	r18, 0x15	; 21
    1c3e:	3e 4f       	sbci	r19, 0xFE	; 254
    1c40:	88 0f       	add	r24, r24
    1c42:	99 1f       	adc	r25, r25
    1c44:	82 0f       	add	r24, r18
    1c46:	93 1f       	adc	r25, r19
    1c48:	fc 01       	movw	r30, r24
    1c4a:	80 81       	ld	r24, Z
    1c4c:	91 81       	ldd	r25, Z+1	; 0x01
    1c4e:	90 93 10 01 	sts	0x0110, r25	; 0x800110 <time.1902+0x1>
    1c52:	80 93 0f 01 	sts	0x010F, r24	; 0x80010f <time.1902>
    1c56:	01 c0       	rjmp	.+2      	; 0x1c5a <__LOCK_REGION_LENGTH__+0x185a>


	static short time = 0;
	static short note = -1;
	if(--time > 0)
		return;
    1c58:	00 00       	nop
	if(++note >= length)
		note = 0;

	set_PWM(notes[note]);
	time = times[note];
}
    1c5a:	ca 54       	subi	r28, 0x4A	; 74
    1c5c:	dd 4f       	sbci	r29, 0xFD	; 253
    1c5e:	0f b6       	in	r0, 0x3f	; 63
    1c60:	f8 94       	cli
    1c62:	de bf       	out	0x3e, r29	; 62
    1c64:	0f be       	out	0x3f, r0	; 63
    1c66:	cd bf       	out	0x3d, r28	; 61
    1c68:	df 91       	pop	r29
    1c6a:	cf 91       	pop	r28
    1c6c:	08 95       	ret

00001c6e <main>:
int main(void)
{
    1c6e:	cf 93       	push	r28
    1c70:	df 93       	push	r29
    1c72:	cd b7       	in	r28, 0x3d	; 61
    1c74:	de b7       	in	r29, 0x3e	; 62
    /* Replace with your application code */
	DDRA = 0;	PINA = -1;
    1c76:	81 e2       	ldi	r24, 0x21	; 33
    1c78:	90 e0       	ldi	r25, 0x00	; 0
    1c7a:	fc 01       	movw	r30, r24
    1c7c:	10 82       	st	Z, r1
    1c7e:	80 e2       	ldi	r24, 0x20	; 32
    1c80:	90 e0       	ldi	r25, 0x00	; 0
    1c82:	2f ef       	ldi	r18, 0xFF	; 255
    1c84:	fc 01       	movw	r30, r24
    1c86:	20 83       	st	Z, r18
	DDRB = 0x1F; PORTB = 0;
    1c88:	84 e2       	ldi	r24, 0x24	; 36
    1c8a:	90 e0       	ldi	r25, 0x00	; 0
    1c8c:	2f e1       	ldi	r18, 0x1F	; 31
    1c8e:	fc 01       	movw	r30, r24
    1c90:	20 83       	st	Z, r18
    1c92:	85 e2       	ldi	r24, 0x25	; 37
    1c94:	90 e0       	ldi	r25, 0x00	; 0
    1c96:	fc 01       	movw	r30, r24
    1c98:	10 82       	st	Z, r1
	PWM_on();
    1c9a:	0e 94 d2 01 	call	0x3a4	; 0x3a4 <PWM_on>
	TimerSet(1);
    1c9e:	61 e0       	ldi	r22, 0x01	; 1
    1ca0:	70 e0       	ldi	r23, 0x00	; 0
    1ca2:	80 e0       	ldi	r24, 0x00	; 0
    1ca4:	90 e0       	ldi	r25, 0x00	; 0
    1ca6:	0e 94 09 01 	call	0x212	; 0x212 <TimerSet>
	TimerOn();
    1caa:	0e 94 66 00 	call	0xcc	; 0xcc <TimerOn>
	while(1) {
		play();
    1cae:	0e 94 e8 01 	call	0x3d0	; 0x3d0 <play>
		while(!TimerFlag);
    1cb2:	00 00       	nop
    1cb4:	80 91 06 01 	lds	r24, 0x0106	; 0x800106 <__data_end>
    1cb8:	88 23       	and	r24, r24
    1cba:	e1 f3       	breq	.-8      	; 0x1cb4 <main+0x46>
		TimerFlag = 0;
    1cbc:	10 92 06 01 	sts	0x0106, r1	; 0x800106 <__data_end>
	}
    1cc0:	f6 cf       	rjmp	.-20     	; 0x1cae <main+0x40>

00001cc2 <__cmpsf2>:
    1cc2:	9c d0       	rcall	.+312    	; 0x1dfc <__fp_cmp>
    1cc4:	08 f4       	brcc	.+2      	; 0x1cc8 <__cmpsf2+0x6>
    1cc6:	81 e0       	ldi	r24, 0x01	; 1
    1cc8:	08 95       	ret

00001cca <__divsf3>:
    1cca:	0c d0       	rcall	.+24     	; 0x1ce4 <__divsf3x>
    1ccc:	d2 c0       	rjmp	.+420    	; 0x1e72 <__fp_round>
    1cce:	ca d0       	rcall	.+404    	; 0x1e64 <__fp_pscB>
    1cd0:	40 f0       	brcs	.+16     	; 0x1ce2 <__divsf3+0x18>
    1cd2:	c1 d0       	rcall	.+386    	; 0x1e56 <__fp_pscA>
    1cd4:	30 f0       	brcs	.+12     	; 0x1ce2 <__divsf3+0x18>
    1cd6:	21 f4       	brne	.+8      	; 0x1ce0 <__divsf3+0x16>
    1cd8:	5f 3f       	cpi	r21, 0xFF	; 255
    1cda:	19 f0       	breq	.+6      	; 0x1ce2 <__divsf3+0x18>
    1cdc:	b3 c0       	rjmp	.+358    	; 0x1e44 <__fp_inf>
    1cde:	51 11       	cpse	r21, r1
    1ce0:	fc c0       	rjmp	.+504    	; 0x1eda <__fp_szero>
    1ce2:	b6 c0       	rjmp	.+364    	; 0x1e50 <__fp_nan>

00001ce4 <__divsf3x>:
    1ce4:	d7 d0       	rcall	.+430    	; 0x1e94 <__fp_split3>
    1ce6:	98 f3       	brcs	.-26     	; 0x1cce <__divsf3+0x4>

00001ce8 <__divsf3_pse>:
    1ce8:	99 23       	and	r25, r25
    1cea:	c9 f3       	breq	.-14     	; 0x1cde <__divsf3+0x14>
    1cec:	55 23       	and	r21, r21
    1cee:	b1 f3       	breq	.-20     	; 0x1cdc <__divsf3+0x12>
    1cf0:	95 1b       	sub	r25, r21
    1cf2:	55 0b       	sbc	r21, r21
    1cf4:	bb 27       	eor	r27, r27
    1cf6:	aa 27       	eor	r26, r26
    1cf8:	62 17       	cp	r22, r18
    1cfa:	73 07       	cpc	r23, r19
    1cfc:	84 07       	cpc	r24, r20
    1cfe:	38 f0       	brcs	.+14     	; 0x1d0e <__divsf3_pse+0x26>
    1d00:	9f 5f       	subi	r25, 0xFF	; 255
    1d02:	5f 4f       	sbci	r21, 0xFF	; 255
    1d04:	22 0f       	add	r18, r18
    1d06:	33 1f       	adc	r19, r19
    1d08:	44 1f       	adc	r20, r20
    1d0a:	aa 1f       	adc	r26, r26
    1d0c:	a9 f3       	breq	.-22     	; 0x1cf8 <__divsf3_pse+0x10>
    1d0e:	33 d0       	rcall	.+102    	; 0x1d76 <__divsf3_pse+0x8e>
    1d10:	0e 2e       	mov	r0, r30
    1d12:	3a f0       	brmi	.+14     	; 0x1d22 <__divsf3_pse+0x3a>
    1d14:	e0 e8       	ldi	r30, 0x80	; 128
    1d16:	30 d0       	rcall	.+96     	; 0x1d78 <__divsf3_pse+0x90>
    1d18:	91 50       	subi	r25, 0x01	; 1
    1d1a:	50 40       	sbci	r21, 0x00	; 0
    1d1c:	e6 95       	lsr	r30
    1d1e:	00 1c       	adc	r0, r0
    1d20:	ca f7       	brpl	.-14     	; 0x1d14 <__divsf3_pse+0x2c>
    1d22:	29 d0       	rcall	.+82     	; 0x1d76 <__divsf3_pse+0x8e>
    1d24:	fe 2f       	mov	r31, r30
    1d26:	27 d0       	rcall	.+78     	; 0x1d76 <__divsf3_pse+0x8e>
    1d28:	66 0f       	add	r22, r22
    1d2a:	77 1f       	adc	r23, r23
    1d2c:	88 1f       	adc	r24, r24
    1d2e:	bb 1f       	adc	r27, r27
    1d30:	26 17       	cp	r18, r22
    1d32:	37 07       	cpc	r19, r23
    1d34:	48 07       	cpc	r20, r24
    1d36:	ab 07       	cpc	r26, r27
    1d38:	b0 e8       	ldi	r27, 0x80	; 128
    1d3a:	09 f0       	breq	.+2      	; 0x1d3e <__divsf3_pse+0x56>
    1d3c:	bb 0b       	sbc	r27, r27
    1d3e:	80 2d       	mov	r24, r0
    1d40:	bf 01       	movw	r22, r30
    1d42:	ff 27       	eor	r31, r31
    1d44:	93 58       	subi	r25, 0x83	; 131
    1d46:	5f 4f       	sbci	r21, 0xFF	; 255
    1d48:	2a f0       	brmi	.+10     	; 0x1d54 <__divsf3_pse+0x6c>
    1d4a:	9e 3f       	cpi	r25, 0xFE	; 254
    1d4c:	51 05       	cpc	r21, r1
    1d4e:	68 f0       	brcs	.+26     	; 0x1d6a <__divsf3_pse+0x82>
    1d50:	79 c0       	rjmp	.+242    	; 0x1e44 <__fp_inf>
    1d52:	c3 c0       	rjmp	.+390    	; 0x1eda <__fp_szero>
    1d54:	5f 3f       	cpi	r21, 0xFF	; 255
    1d56:	ec f3       	brlt	.-6      	; 0x1d52 <__divsf3_pse+0x6a>
    1d58:	98 3e       	cpi	r25, 0xE8	; 232
    1d5a:	dc f3       	brlt	.-10     	; 0x1d52 <__divsf3_pse+0x6a>
    1d5c:	86 95       	lsr	r24
    1d5e:	77 95       	ror	r23
    1d60:	67 95       	ror	r22
    1d62:	b7 95       	ror	r27
    1d64:	f7 95       	ror	r31
    1d66:	9f 5f       	subi	r25, 0xFF	; 255
    1d68:	c9 f7       	brne	.-14     	; 0x1d5c <__divsf3_pse+0x74>
    1d6a:	88 0f       	add	r24, r24
    1d6c:	91 1d       	adc	r25, r1
    1d6e:	96 95       	lsr	r25
    1d70:	87 95       	ror	r24
    1d72:	97 f9       	bld	r25, 7
    1d74:	08 95       	ret
    1d76:	e1 e0       	ldi	r30, 0x01	; 1
    1d78:	66 0f       	add	r22, r22
    1d7a:	77 1f       	adc	r23, r23
    1d7c:	88 1f       	adc	r24, r24
    1d7e:	bb 1f       	adc	r27, r27
    1d80:	62 17       	cp	r22, r18
    1d82:	73 07       	cpc	r23, r19
    1d84:	84 07       	cpc	r24, r20
    1d86:	ba 07       	cpc	r27, r26
    1d88:	20 f0       	brcs	.+8      	; 0x1d92 <__divsf3_pse+0xaa>
    1d8a:	62 1b       	sub	r22, r18
    1d8c:	73 0b       	sbc	r23, r19
    1d8e:	84 0b       	sbc	r24, r20
    1d90:	ba 0b       	sbc	r27, r26
    1d92:	ee 1f       	adc	r30, r30
    1d94:	88 f7       	brcc	.-30     	; 0x1d78 <__divsf3_pse+0x90>
    1d96:	e0 95       	com	r30
    1d98:	08 95       	ret

00001d9a <__fixsfsi>:
    1d9a:	04 d0       	rcall	.+8      	; 0x1da4 <__fixunssfsi>
    1d9c:	68 94       	set
    1d9e:	b1 11       	cpse	r27, r1
    1da0:	9c c0       	rjmp	.+312    	; 0x1eda <__fp_szero>
    1da2:	08 95       	ret

00001da4 <__fixunssfsi>:
    1da4:	7f d0       	rcall	.+254    	; 0x1ea4 <__fp_splitA>
    1da6:	88 f0       	brcs	.+34     	; 0x1dca <__fixunssfsi+0x26>
    1da8:	9f 57       	subi	r25, 0x7F	; 127
    1daa:	90 f0       	brcs	.+36     	; 0x1dd0 <__fixunssfsi+0x2c>
    1dac:	b9 2f       	mov	r27, r25
    1dae:	99 27       	eor	r25, r25
    1db0:	b7 51       	subi	r27, 0x17	; 23
    1db2:	a0 f0       	brcs	.+40     	; 0x1ddc <__fixunssfsi+0x38>
    1db4:	d1 f0       	breq	.+52     	; 0x1dea <__fixunssfsi+0x46>
    1db6:	66 0f       	add	r22, r22
    1db8:	77 1f       	adc	r23, r23
    1dba:	88 1f       	adc	r24, r24
    1dbc:	99 1f       	adc	r25, r25
    1dbe:	1a f0       	brmi	.+6      	; 0x1dc6 <__fixunssfsi+0x22>
    1dc0:	ba 95       	dec	r27
    1dc2:	c9 f7       	brne	.-14     	; 0x1db6 <__fixunssfsi+0x12>
    1dc4:	12 c0       	rjmp	.+36     	; 0x1dea <__fixunssfsi+0x46>
    1dc6:	b1 30       	cpi	r27, 0x01	; 1
    1dc8:	81 f0       	breq	.+32     	; 0x1dea <__fixunssfsi+0x46>
    1dca:	86 d0       	rcall	.+268    	; 0x1ed8 <__fp_zero>
    1dcc:	b1 e0       	ldi	r27, 0x01	; 1
    1dce:	08 95       	ret
    1dd0:	83 c0       	rjmp	.+262    	; 0x1ed8 <__fp_zero>
    1dd2:	67 2f       	mov	r22, r23
    1dd4:	78 2f       	mov	r23, r24
    1dd6:	88 27       	eor	r24, r24
    1dd8:	b8 5f       	subi	r27, 0xF8	; 248
    1dda:	39 f0       	breq	.+14     	; 0x1dea <__fixunssfsi+0x46>
    1ddc:	b9 3f       	cpi	r27, 0xF9	; 249
    1dde:	cc f3       	brlt	.-14     	; 0x1dd2 <__fixunssfsi+0x2e>
    1de0:	86 95       	lsr	r24
    1de2:	77 95       	ror	r23
    1de4:	67 95       	ror	r22
    1de6:	b3 95       	inc	r27
    1de8:	d9 f7       	brne	.-10     	; 0x1de0 <__fixunssfsi+0x3c>
    1dea:	3e f4       	brtc	.+14     	; 0x1dfa <__fixunssfsi+0x56>
    1dec:	90 95       	com	r25
    1dee:	80 95       	com	r24
    1df0:	70 95       	com	r23
    1df2:	61 95       	neg	r22
    1df4:	7f 4f       	sbci	r23, 0xFF	; 255
    1df6:	8f 4f       	sbci	r24, 0xFF	; 255
    1df8:	9f 4f       	sbci	r25, 0xFF	; 255
    1dfa:	08 95       	ret

00001dfc <__fp_cmp>:
    1dfc:	99 0f       	add	r25, r25
    1dfe:	00 08       	sbc	r0, r0
    1e00:	55 0f       	add	r21, r21
    1e02:	aa 0b       	sbc	r26, r26
    1e04:	e0 e8       	ldi	r30, 0x80	; 128
    1e06:	fe ef       	ldi	r31, 0xFE	; 254
    1e08:	16 16       	cp	r1, r22
    1e0a:	17 06       	cpc	r1, r23
    1e0c:	e8 07       	cpc	r30, r24
    1e0e:	f9 07       	cpc	r31, r25
    1e10:	c0 f0       	brcs	.+48     	; 0x1e42 <__fp_cmp+0x46>
    1e12:	12 16       	cp	r1, r18
    1e14:	13 06       	cpc	r1, r19
    1e16:	e4 07       	cpc	r30, r20
    1e18:	f5 07       	cpc	r31, r21
    1e1a:	98 f0       	brcs	.+38     	; 0x1e42 <__fp_cmp+0x46>
    1e1c:	62 1b       	sub	r22, r18
    1e1e:	73 0b       	sbc	r23, r19
    1e20:	84 0b       	sbc	r24, r20
    1e22:	95 0b       	sbc	r25, r21
    1e24:	39 f4       	brne	.+14     	; 0x1e34 <__fp_cmp+0x38>
    1e26:	0a 26       	eor	r0, r26
    1e28:	61 f0       	breq	.+24     	; 0x1e42 <__fp_cmp+0x46>
    1e2a:	23 2b       	or	r18, r19
    1e2c:	24 2b       	or	r18, r20
    1e2e:	25 2b       	or	r18, r21
    1e30:	21 f4       	brne	.+8      	; 0x1e3a <__fp_cmp+0x3e>
    1e32:	08 95       	ret
    1e34:	0a 26       	eor	r0, r26
    1e36:	09 f4       	brne	.+2      	; 0x1e3a <__fp_cmp+0x3e>
    1e38:	a1 40       	sbci	r26, 0x01	; 1
    1e3a:	a6 95       	lsr	r26
    1e3c:	8f ef       	ldi	r24, 0xFF	; 255
    1e3e:	81 1d       	adc	r24, r1
    1e40:	81 1d       	adc	r24, r1
    1e42:	08 95       	ret

00001e44 <__fp_inf>:
    1e44:	97 f9       	bld	r25, 7
    1e46:	9f 67       	ori	r25, 0x7F	; 127
    1e48:	80 e8       	ldi	r24, 0x80	; 128
    1e4a:	70 e0       	ldi	r23, 0x00	; 0
    1e4c:	60 e0       	ldi	r22, 0x00	; 0
    1e4e:	08 95       	ret

00001e50 <__fp_nan>:
    1e50:	9f ef       	ldi	r25, 0xFF	; 255
    1e52:	80 ec       	ldi	r24, 0xC0	; 192
    1e54:	08 95       	ret

00001e56 <__fp_pscA>:
    1e56:	00 24       	eor	r0, r0
    1e58:	0a 94       	dec	r0
    1e5a:	16 16       	cp	r1, r22
    1e5c:	17 06       	cpc	r1, r23
    1e5e:	18 06       	cpc	r1, r24
    1e60:	09 06       	cpc	r0, r25
    1e62:	08 95       	ret

00001e64 <__fp_pscB>:
    1e64:	00 24       	eor	r0, r0
    1e66:	0a 94       	dec	r0
    1e68:	12 16       	cp	r1, r18
    1e6a:	13 06       	cpc	r1, r19
    1e6c:	14 06       	cpc	r1, r20
    1e6e:	05 06       	cpc	r0, r21
    1e70:	08 95       	ret

00001e72 <__fp_round>:
    1e72:	09 2e       	mov	r0, r25
    1e74:	03 94       	inc	r0
    1e76:	00 0c       	add	r0, r0
    1e78:	11 f4       	brne	.+4      	; 0x1e7e <__fp_round+0xc>
    1e7a:	88 23       	and	r24, r24
    1e7c:	52 f0       	brmi	.+20     	; 0x1e92 <__fp_round+0x20>
    1e7e:	bb 0f       	add	r27, r27
    1e80:	40 f4       	brcc	.+16     	; 0x1e92 <__fp_round+0x20>
    1e82:	bf 2b       	or	r27, r31
    1e84:	11 f4       	brne	.+4      	; 0x1e8a <__fp_round+0x18>
    1e86:	60 ff       	sbrs	r22, 0
    1e88:	04 c0       	rjmp	.+8      	; 0x1e92 <__fp_round+0x20>
    1e8a:	6f 5f       	subi	r22, 0xFF	; 255
    1e8c:	7f 4f       	sbci	r23, 0xFF	; 255
    1e8e:	8f 4f       	sbci	r24, 0xFF	; 255
    1e90:	9f 4f       	sbci	r25, 0xFF	; 255
    1e92:	08 95       	ret

00001e94 <__fp_split3>:
    1e94:	57 fd       	sbrc	r21, 7
    1e96:	90 58       	subi	r25, 0x80	; 128
    1e98:	44 0f       	add	r20, r20
    1e9a:	55 1f       	adc	r21, r21
    1e9c:	59 f0       	breq	.+22     	; 0x1eb4 <__fp_splitA+0x10>
    1e9e:	5f 3f       	cpi	r21, 0xFF	; 255
    1ea0:	71 f0       	breq	.+28     	; 0x1ebe <__fp_splitA+0x1a>
    1ea2:	47 95       	ror	r20

00001ea4 <__fp_splitA>:
    1ea4:	88 0f       	add	r24, r24
    1ea6:	97 fb       	bst	r25, 7
    1ea8:	99 1f       	adc	r25, r25
    1eaa:	61 f0       	breq	.+24     	; 0x1ec4 <__fp_splitA+0x20>
    1eac:	9f 3f       	cpi	r25, 0xFF	; 255
    1eae:	79 f0       	breq	.+30     	; 0x1ece <__fp_splitA+0x2a>
    1eb0:	87 95       	ror	r24
    1eb2:	08 95       	ret
    1eb4:	12 16       	cp	r1, r18
    1eb6:	13 06       	cpc	r1, r19
    1eb8:	14 06       	cpc	r1, r20
    1eba:	55 1f       	adc	r21, r21
    1ebc:	f2 cf       	rjmp	.-28     	; 0x1ea2 <__fp_split3+0xe>
    1ebe:	46 95       	lsr	r20
    1ec0:	f1 df       	rcall	.-30     	; 0x1ea4 <__fp_splitA>
    1ec2:	08 c0       	rjmp	.+16     	; 0x1ed4 <__fp_splitA+0x30>
    1ec4:	16 16       	cp	r1, r22
    1ec6:	17 06       	cpc	r1, r23
    1ec8:	18 06       	cpc	r1, r24
    1eca:	99 1f       	adc	r25, r25
    1ecc:	f1 cf       	rjmp	.-30     	; 0x1eb0 <__fp_splitA+0xc>
    1ece:	86 95       	lsr	r24
    1ed0:	71 05       	cpc	r23, r1
    1ed2:	61 05       	cpc	r22, r1
    1ed4:	08 94       	sec
    1ed6:	08 95       	ret

00001ed8 <__fp_zero>:
    1ed8:	e8 94       	clt

00001eda <__fp_szero>:
    1eda:	bb 27       	eor	r27, r27
    1edc:	66 27       	eor	r22, r22
    1ede:	77 27       	eor	r23, r23
    1ee0:	cb 01       	movw	r24, r22
    1ee2:	97 f9       	bld	r25, 7
    1ee4:	08 95       	ret

00001ee6 <__gesf2>:
    1ee6:	8a df       	rcall	.-236    	; 0x1dfc <__fp_cmp>
    1ee8:	08 f4       	brcc	.+2      	; 0x1eec <__gesf2+0x6>
    1eea:	8f ef       	ldi	r24, 0xFF	; 255
    1eec:	08 95       	ret

00001eee <__mulsf3>:
    1eee:	0b d0       	rcall	.+22     	; 0x1f06 <__mulsf3x>
    1ef0:	c0 cf       	rjmp	.-128    	; 0x1e72 <__fp_round>
    1ef2:	b1 df       	rcall	.-158    	; 0x1e56 <__fp_pscA>
    1ef4:	28 f0       	brcs	.+10     	; 0x1f00 <__mulsf3+0x12>
    1ef6:	b6 df       	rcall	.-148    	; 0x1e64 <__fp_pscB>
    1ef8:	18 f0       	brcs	.+6      	; 0x1f00 <__mulsf3+0x12>
    1efa:	95 23       	and	r25, r21
    1efc:	09 f0       	breq	.+2      	; 0x1f00 <__mulsf3+0x12>
    1efe:	a2 cf       	rjmp	.-188    	; 0x1e44 <__fp_inf>
    1f00:	a7 cf       	rjmp	.-178    	; 0x1e50 <__fp_nan>
    1f02:	11 24       	eor	r1, r1
    1f04:	ea cf       	rjmp	.-44     	; 0x1eda <__fp_szero>

00001f06 <__mulsf3x>:
    1f06:	c6 df       	rcall	.-116    	; 0x1e94 <__fp_split3>
    1f08:	a0 f3       	brcs	.-24     	; 0x1ef2 <__mulsf3+0x4>

00001f0a <__mulsf3_pse>:
    1f0a:	95 9f       	mul	r25, r21
    1f0c:	d1 f3       	breq	.-12     	; 0x1f02 <__mulsf3+0x14>
    1f0e:	95 0f       	add	r25, r21
    1f10:	50 e0       	ldi	r21, 0x00	; 0
    1f12:	55 1f       	adc	r21, r21
    1f14:	62 9f       	mul	r22, r18
    1f16:	f0 01       	movw	r30, r0
    1f18:	72 9f       	mul	r23, r18
    1f1a:	bb 27       	eor	r27, r27
    1f1c:	f0 0d       	add	r31, r0
    1f1e:	b1 1d       	adc	r27, r1
    1f20:	63 9f       	mul	r22, r19
    1f22:	aa 27       	eor	r26, r26
    1f24:	f0 0d       	add	r31, r0
    1f26:	b1 1d       	adc	r27, r1
    1f28:	aa 1f       	adc	r26, r26
    1f2a:	64 9f       	mul	r22, r20
    1f2c:	66 27       	eor	r22, r22
    1f2e:	b0 0d       	add	r27, r0
    1f30:	a1 1d       	adc	r26, r1
    1f32:	66 1f       	adc	r22, r22
    1f34:	82 9f       	mul	r24, r18
    1f36:	22 27       	eor	r18, r18
    1f38:	b0 0d       	add	r27, r0
    1f3a:	a1 1d       	adc	r26, r1
    1f3c:	62 1f       	adc	r22, r18
    1f3e:	73 9f       	mul	r23, r19
    1f40:	b0 0d       	add	r27, r0
    1f42:	a1 1d       	adc	r26, r1
    1f44:	62 1f       	adc	r22, r18
    1f46:	83 9f       	mul	r24, r19
    1f48:	a0 0d       	add	r26, r0
    1f4a:	61 1d       	adc	r22, r1
    1f4c:	22 1f       	adc	r18, r18
    1f4e:	74 9f       	mul	r23, r20
    1f50:	33 27       	eor	r19, r19
    1f52:	a0 0d       	add	r26, r0
    1f54:	61 1d       	adc	r22, r1
    1f56:	23 1f       	adc	r18, r19
    1f58:	84 9f       	mul	r24, r20
    1f5a:	60 0d       	add	r22, r0
    1f5c:	21 1d       	adc	r18, r1
    1f5e:	82 2f       	mov	r24, r18
    1f60:	76 2f       	mov	r23, r22
    1f62:	6a 2f       	mov	r22, r26
    1f64:	11 24       	eor	r1, r1
    1f66:	9f 57       	subi	r25, 0x7F	; 127
    1f68:	50 40       	sbci	r21, 0x00	; 0
    1f6a:	8a f0       	brmi	.+34     	; 0x1f8e <__mulsf3_pse+0x84>
    1f6c:	e1 f0       	breq	.+56     	; 0x1fa6 <__mulsf3_pse+0x9c>
    1f6e:	88 23       	and	r24, r24
    1f70:	4a f0       	brmi	.+18     	; 0x1f84 <__mulsf3_pse+0x7a>
    1f72:	ee 0f       	add	r30, r30
    1f74:	ff 1f       	adc	r31, r31
    1f76:	bb 1f       	adc	r27, r27
    1f78:	66 1f       	adc	r22, r22
    1f7a:	77 1f       	adc	r23, r23
    1f7c:	88 1f       	adc	r24, r24
    1f7e:	91 50       	subi	r25, 0x01	; 1
    1f80:	50 40       	sbci	r21, 0x00	; 0
    1f82:	a9 f7       	brne	.-22     	; 0x1f6e <__mulsf3_pse+0x64>
    1f84:	9e 3f       	cpi	r25, 0xFE	; 254
    1f86:	51 05       	cpc	r21, r1
    1f88:	70 f0       	brcs	.+28     	; 0x1fa6 <__mulsf3_pse+0x9c>
    1f8a:	5c cf       	rjmp	.-328    	; 0x1e44 <__fp_inf>
    1f8c:	a6 cf       	rjmp	.-180    	; 0x1eda <__fp_szero>
    1f8e:	5f 3f       	cpi	r21, 0xFF	; 255
    1f90:	ec f3       	brlt	.-6      	; 0x1f8c <__mulsf3_pse+0x82>
    1f92:	98 3e       	cpi	r25, 0xE8	; 232
    1f94:	dc f3       	brlt	.-10     	; 0x1f8c <__mulsf3_pse+0x82>
    1f96:	86 95       	lsr	r24
    1f98:	77 95       	ror	r23
    1f9a:	67 95       	ror	r22
    1f9c:	b7 95       	ror	r27
    1f9e:	f7 95       	ror	r31
    1fa0:	e7 95       	ror	r30
    1fa2:	9f 5f       	subi	r25, 0xFF	; 255
    1fa4:	c1 f7       	brne	.-16     	; 0x1f96 <__mulsf3_pse+0x8c>
    1fa6:	fe 2b       	or	r31, r30
    1fa8:	88 0f       	add	r24, r24
    1faa:	91 1d       	adc	r25, r1
    1fac:	96 95       	lsr	r25
    1fae:	87 95       	ror	r24
    1fb0:	97 f9       	bld	r25, 7
    1fb2:	08 95       	ret

00001fb4 <_exit>:
    1fb4:	f8 94       	cli

00001fb6 <__stop_program>:
    1fb6:	ff cf       	rjmp	.-2      	; 0x1fb6 <__stop_program>
